LX51 LINKER/LOCATER V4.58                                                               08/27/2019  16:41:25  PAGE 1


LX51 LINKER/LOCATER V4.58, INVOKED BY:
C:\KEIL\C51\BIN\LX51.EXE .\obj\main.obj, .\obj\sys.obj, .\obj\control.obj, .\obj\config.obj, .\obj\uart.obj, .\obj\TP_dr
>> aw.obj, .\obj\timer.obj, .\obj\VCNL4000.obj, .\obj\ORC.obj, .\obj\STARTUP.obj TO .\obj\T5L51 PRINT (.\Listings\T5L51.
>> map) REMOVEUNUSED CLASSES (XDATA (X:0X8000-X:0XFFFF), HDATA (X:0X8000-X:0XFFFF), CODE (C:0X100-C:0XFFFF), CONST (C:0X
>> 100-C:0XFFFF), ECODE (C:0X100-C:0XFFFF), HCONST (C:0X100-C:0XFFFF))


CPU MODE:     8051 MODE
MEMORY MODEL: LARGE WITH FLOATING POINT ARITHMETIC


INPUT MODULES INCLUDED:
  .\obj\main.obj (MAIN)
         COMMENT TYPE 0: C51 V9.50a
  .\obj\sys.obj (SYS)
         COMMENT TYPE 0: C51 V9.50a
  .\obj\control.obj (CONTROL)
         COMMENT TYPE 0: C51 V9.50a
  .\obj\config.obj (CONFIG)
         COMMENT TYPE 0: C51 V9.50a
  .\obj\uart.obj (UART)
         COMMENT TYPE 0: C51 V9.50a
  .\obj\TP_draw.obj (TP_DRAW)
         COMMENT TYPE 0: C51 V9.50a
  .\obj\timer.obj (TIMER)
         COMMENT TYPE 0: C51 V9.50a
  .\obj\VCNL4000.obj (VCNL4000)
         COMMENT TYPE 0: C51 V9.50a
  .\obj\ORC.obj (ORC)
         COMMENT TYPE 0: C51 V9.50a
  .\obj\STARTUP.obj (?C_STARTUP)
         COMMENT TYPE 1: A51 / ASM51 Assembler
  C:\KEIL\C51\LIB\C51FPL.LIB (?C?FPADD)
         COMMENT TYPE 1: A51 / ASM51 Assembler
  C:\KEIL\C51\LIB\C51FPL.LIB (?C?FPMUL)
         COMMENT TYPE 1: A51 / ASM51 Assembler
  C:\KEIL\C51\LIB\C51FPL.LIB (?C?FPDIV)
         COMMENT TYPE 1: A51 / ASM51 Assembler
  C:\KEIL\C51\LIB\C51FPL.LIB (?C?FCAST)
         COMMENT TYPE 1: A51 / ASM51 Assembler
  C:\KEIL\C51\LIB\C51FPL.LIB (?C?CASTF)
         COMMENT TYPE 1: A51 / ASM51 Assembler
  C:\KEIL\C51\LIB\C51FPL.LIB (SQRT)
         COMMENT TYPE 1: A51 / ASM51 Assembler
  C:\KEIL\C51\LIB\C51FPL.LIB (?C?FPGETOPN)
         COMMENT TYPE 1: A51 / ASM51 Assembler
  C:\KEIL\C51\LIB\C51L.LIB (?C_INIT)
         COMMENT TYPE 1: A51 / ASM51 Assembler
  C:\KEIL\C51\LIB\C51L.LIB (?C?COPY)
         COMMENT TYPE 1: A51 / ASM51 Assembler
  C:\KEIL\C51\LIB\C51L.LIB (?C?CLDPTR)
         COMMENT TYPE 1: A51 / ASM51 Assembler
  C:\KEIL\C51\LIB\C51L.LIB (?C?CLDOPTR)
         COMMENT TYPE 1: A51 / ASM51 Assembler
  C:\KEIL\C51\LIB\C51L.LIB (?C?CSTPTR)
         COMMENT TYPE 1: A51 / ASM51 Assembler
  C:\KEIL\C51\LIB\C51L.LIB (?C?CSTOPTR)
         COMMENT TYPE 1: A51 / ASM51 Assembler
  C:\KEIL\C51\LIB\C51L.LIB (?C?IMUL)
         COMMENT TYPE 1: A51 / ASM51 Assembler
  C:\KEIL\C51\LIB\C51L.LIB (?C?UIDIV)
         COMMENT TYPE 1: A51 / ASM51 Assembler
  C:\KEIL\C51\LIB\C51L.LIB (?C?SIDIV)
         COMMENT TYPE 1: A51 / ASM51 Assembler
  C:\KEIL\C51\LIB\C51L.LIB (?C?IILDX)
         COMMENT TYPE 1: A51 / ASM51 Assembler
LX51 LINKER/LOCATER V4.58                                                             08/27/2019  16:41:25  PAGE 2


  C:\KEIL\C51\LIB\C51L.LIB (?C?ILDIX)
         COMMENT TYPE 1: A51 / ASM51 Assembler
  C:\KEIL\C51\LIB\C51L.LIB (?C?ILDOPTR)
         COMMENT TYPE 1: A51 / ASM51 Assembler
  C:\KEIL\C51\LIB\C51L.LIB (?C?ISTPTR)
         COMMENT TYPE 1: A51 / ASM51 Assembler
  C:\KEIL\C51\LIB\C51L.LIB (?C?LMUL)
         COMMENT TYPE 1: A51 / ASM51 Assembler
  C:\KEIL\C51\LIB\C51L.LIB (?C?ULDIV)
         COMMENT TYPE 1: A51 / ASM51 Assembler
  C:\KEIL\C51\LIB\C51L.LIB (?C?LNEG)
         COMMENT TYPE 1: A51 / ASM51 Assembler
  C:\KEIL\C51\LIB\C51L.LIB (?C?SLCMP)
         COMMENT TYPE 1: A51 / ASM51 Assembler
  C:\KEIL\C51\LIB\C51L.LIB (?C?ULCMP)
         COMMENT TYPE 1: A51 / ASM51 Assembler
  C:\KEIL\C51\LIB\C51L.LIB (?C?ULSHR)
         COMMENT TYPE 1: A51 / ASM51 Assembler
  C:\KEIL\C51\LIB\C51L.LIB (?C?LLDXDATA)
         COMMENT TYPE 1: A51 / ASM51 Assembler
  C:\KEIL\C51\LIB\C51L.LIB (?C?LSTXDATA)
         COMMENT TYPE 1: A51 / ASM51 Assembler
  C:\KEIL\C51\LIB\C51L.LIB (?C?LSTKXDATA)
         COMMENT TYPE 1: A51 / ASM51 Assembler
  C:\KEIL\C51\LIB\C51L.LIB (?C?OFFXADD)
         COMMENT TYPE 1: A51 / ASM51 Assembler
  C:\KEIL\C51\LIB\C51L.LIB (?C?ICASE)
         COMMENT TYPE 1: A51 / ASM51 Assembler
  C:\KEIL\C51\LIB\C51L.LIB (?C?LIMUL)
         COMMENT TYPE 1: A51 / ASM51 Assembler
  C:\KEIL\C51\LIB\C51L.LIB (ABS)
         COMMENT TYPE 1: A51 / ASM51 Assembler
  C:\KEIL\C51\LIB\C51L.LIB (?C?STRCMP)
         COMMENT TYPE 1: A51 / ASM51 Assembler
  C:\KEIL\C51\LIB\C51L.LIB (?C?MEMSET)
         COMMENT TYPE 1: A51 / ASM51 Assembler


ACTIVE MEMORY CLASSES OF MODULE:  .\obj\T5L51 (MAIN)

BASE        START       END         USED      MEMORY CLASS
==========================================================
X:000000H   X:008000H   X:00FFFFH   000821H   XDATA
X:000000H   X:008000H   X:00FFFFH             HDATA
C:000000H   C:000100H   C:00FFFFH   0060ABH   CODE
C:000000H   C:000100H   C:00FFFFH   0004B1H   CONST
C:000000H   C:000100H   C:00FFFFH             ECODE
B00:0000H   C:000100H   C:00FFFFH             HCONST
I:000000H   I:000000H   I:00007FH   000039H   DATA
I:000000H   I:000000H   I:0000FFH   000001H   IDATA


MEMORY MAP OF MODULE:  .\obj\T5L51 (MAIN)


START     STOP      LENGTH    ALIGN  RELOC    MEMORY CLASS   SEGMENT NAME
=========================================================================

* * * * * * * * * * *   D A T A   M E M O R Y   * * * * * * * * * * * * *
000000H   000007H   000008H   ---    AT..     DATA           "REG BANK 0"
000008H   000019H   000012H   BYTE   UNIT     DATA           ?DT?SYS
00001AH   000025H   00000CH   BYTE   UNIT     DATA           ?DT?CONTROL
000026H   00002DH   000008H   BYTE   UNIT     DATA           ?DT?TP_DRAW
00002EH   000034H   000007H   BYTE   UNIT     DATA           ?DT?TIMER
000035H   000038H   000004H   BYTE   UNIT     DATA           ?DT?CONFIG
LX51 LINKER/LOCATER V4.58                                                             08/27/2019  16:41:25  PAGE 3


000039H   000039H   000001H   BYTE   UNIT     IDATA          ?STACK

* * * * * * * * * * *   C O D E   M E M O R Y   * * * * * * * * * * * * *
000000H   000002H   000003H   ---    OFFS..   CODE           ?CO??C_STARTUP?0
000003H   00000AH   000008H   ---    ---      **GAP**
00000BH   00000DH   000003H   BYTE   OFFS..   CODE           ?SYS?0000B
00000EH   00001AH   00000DH   ---    ---      **GAP**
00001BH   00001DH   000003H   BYTE   OFFS..   CODE           ?SYS?0001B
00001EH   000022H   000005H   ---    ---      **GAP**
000023H   000025H   000003H   BYTE   OFFS..   CODE           ?UART?00023
000026H   00002AH   000005H   ---    ---      **GAP**
00002BH   00002DH   000003H   BYTE   OFFS..   CODE           ?SYS?0002B
00002EH   000062H   000035H   ---    ---      **GAP**
000063H   000065H   000003H   BYTE   OFFS..   CODE           ?UART?00063
000066H   00006AH   000005H   ---    ---      **GAP**
00006BH   00006DH   000003H   BYTE   OFFS..   CODE           ?UART?0006B
00006EH   000082H   000015H   ---    ---      **GAP**
000083H   000085H   000003H   BYTE   OFFS..   CODE           ?UART?00083
000086H   0000F7H   000072H   ---    ---      **GAP**
0000F8H   0000FFH   000008H   ---    OFFS..   CODE           ?CO??C_STARTUP?1
000100H   000AC7H   0009C8H   BYTE   UNIT     CODE           ?C?LIB_CODE
000AC8H   0010FBH   000634H   BYTE   UNIT     CODE           ?C_INITSEG
0010FCH   00119CH   0000A1H   BYTE   UNIT     CODE           ?C_C51STARTUP
00119DH   0011A8H   00000CH   BYTE   UNIT     CODE           ?PR?_ABS?ABS
0011A9H   001470H   0002C8H   BYTE   UNIT     CONST          ?CO?CONTROL
001471H   00163DH   0001CDH   BYTE   UNIT     CONST          ?CO?SYS
00163EH   00164AH   00000DH   BYTE   UNIT     CONST          ?CO?MAIN
00164BH   001652H   000008H   BYTE   UNIT     CONST          ?CO?CONFIG
001653H   001659H   000007H   BYTE   UNIT     CONST          ?CO?TIMER
00165AH   00169CH   000043H   BYTE   UNIT     CODE           ?PR?MAIN?MAIN
00169DH   0016FCH   000060H   BYTE   UNIT     CODE           ?PR?VCNL4200_INIT?VCNL4000
0016FDH   00171AH   00001EH   BYTE   UNIT     CODE           ?PR?_VCNL4200_WRITEONEWORDS?VCNL4000
00171BH   001744H   00002AH   BYTE   UNIT     CODE           ?PR?I2C_WAITACK?VCNL4000
001745H   00176DH   000029H   BYTE   UNIT     CODE           ?PR?_I2C_SENDBYTE?VCNL4000
00176EH   00177FH   000012H   BYTE   UNIT     CODE           ?PR?I2C_DELAY?VCNL4000
001780H   00179CH   00001DH   BYTE   UNIT     CODE           ?PR?_VCNL4200_READONEWORDS?VCNL4000
00179DH   0017B1H   000015H   BYTE   UNIT     CODE           ?PR?I2C_STOP?VCNL4000
0017B2H   0017DCH   00002BH   BYTE   UNIT     CODE           ?PR?I2C_START?VCNL4000
0017DDH   0017EBH   00000FH   BYTE   UNIT     CODE           ?PR?I2C_ACK?VCNL4000
0017ECH   0017F2H   000007H   BYTE   UNIT     CODE           ?PR?I2C_INITIAL?VCNL4000
0017F3H   001867H   000075H   BYTE   UNIT     CODE           ?PR?INIT_CPU?SYS
001868H   001871H   00000AH   BYTE   UNIT     CODE           ?PR?PORT_INIT?SYS
001872H   001C4AH   0003D9H   BYTE   UNIT     CODE           ?PR?SYSTEM_PARM_INIT?SYS
001C4BH   001E65H   00021BH   BYTE   UNIT     CODE           ?PR?_READ_DGUS_VP?SYS
001E66H   001F6CH   000107H   BYTE   UNIT     CODE           ?PR?DISPLAY_TEMPERATURE?CONTROL
001F6DH   001FCFH   000063H   BYTE   UNIT     CODE           ?PR?TIMER_WEEK_DISPLAY?CONFIG
001FD0H   001FDFH   000010H   BYTE   UNIT     CODE           ?PR?_DELAY_MS?SYS
001FE0H   002195H   0001B6H   BYTE   UNIT     CODE           ?PR?_WEEK_VAL?CONFIG
002196H   0021CCH   000037H   BYTE   UNIT     CODE           ?PR?READ_NOR_FLASH?SYS
0021CDH   002422H   000256H   BYTE   UNIT     CODE           ?PR?_WRITE_DGUS_VP?SYS
002423H   002719H   0002F7H   BYTE   UNIT     CODE           ?PR?PARM_RESET_INIT?SYS
00271AH   0027A0H   000087H   BYTE   UNIT     CODE           ?PR?KEY_HANDLER?SYS
0027A1H   0027C1H   000021H   BYTE   UNIT     CODE           ?PR?RESET_CONFIRM_HANDLER?CONFIG
0027C2H   00280FH   00004EH   BYTE   UNIT     CODE           ?PR?RETURN_MAIN_PAGE?CONFIG
002810H   002847H   000038H   BYTE   UNIT     CODE           ?PR?WRITE_NOR_FLASH?SYS
002848H   00284CH   000005H   BYTE   UNIT     CODE           ?PR?SHUT_DOWN_HANDLER?CONFIG
00284DH   002ACCH   000280H   BYTE   UNIT     CODE           ?PR?PARM_SET_FUNCTION?CONFIG
002ACDH   002C2CH   000160H   BYTE   UNIT     CODE           ?PR?ASC_DATA_HANDLER?CONFIG
002C2DH   002C80H   000054H   BYTE   UNIT     CODE           ?PR?TEMPERATURE_SET_CONFIRM_HANDLER?CONFIG
002C81H   002E14H   000194H   BYTE   UNIT     CODE           ?PR?_SAVE_WEEK_HANDLER?CONFIG
002E15H   002E47H   000033H   BYTE   UNIT     CODE           ?PR?STANDBY_BOOT_HANDLER?CONFIG
002E48H   002E95H   00004EH   BYTE   UNIT     CODE           ?PR?M4G6_HANDLER?CONFIG
002E96H   002EE9H   000054H   BYTE   UNIT     CODE           ?PR?SAVE_DATA_HANDLER?SYS
002EEAH   002F3EH   000055H   BYTE   UNIT     CODE           ?PR?BOOT_HANDLER?SYS
002F3FH   002F3FH   000001H   BYTE   UNIT     CODE           ?PR?SYSTEM_SET_ENTER_HANDLER?CONFIG
LX51 LINKER/LOCATER V4.58                                                             08/27/2019  16:41:25  PAGE 4


002F40H   002F40H   000001H   BYTE   UNIT     CODE           ?PR?RESET_CANCEL_HANDLER?CONFIG
002F41H   002F41H   000001H   BYTE   UNIT     CODE           ?PR?SYSTEM_SET_RETURN_HANDLER?CONFIG
002F42H   002F42H   000001H   BYTE   UNIT     CODE           ?PR?ALARM_SELECT_RETURN_HANDLER?CONFIG
002F43H   002F43H   000001H   BYTE   UNIT     CODE           ?PR?ADVANCE_SET_RERURN_HANDLER?CONFIG
002F44H   002F44H   000001H   BYTE   UNIT     CODE           ?PR?TIMER_TIME_SET_CANCEL_HANDLER?CONFIG
002F45H   002F45H   000001H   BYTE   UNIT     CODE           ?PR?TIMER_SPEED_MODE_SET_CANCEL_HANDLER?CONFIG
002F46H   002F46H   000001H   BYTE   UNIT     CODE           ?PR?TIMER_SELECT_RETURN_HANDLER?CONFIG
002F47H   002F47H   000001H   BYTE   UNIT     CODE           ?PR?TEMPERATURE_SET_CANCEL_HANDLER?CONFIG
002F48H   002F48H   000001H   BYTE   UNIT     CODE           ?PR?ALARM_SET_CANCEL_HANDLER?CONFIG
002F49H   002F4BH   000003H   BYTE   UNIT     CODE           ?PR?TIME_SET_CANCEL_HANDLER?CONFIG
002F4CH   002F65H   00001AH   BYTE   UNIT     CODE           ?PR?PARM_UPLOAD_HANDLER?CONFIG
002F66H   002F83H   00001EH   BYTE   UNIT     CODE           ?PR?MESSAGE_HANDLER?CONFIG
002F84H   002FA1H   00001EH   BYTE   UNIT     CODE           ?PR?SPEED_AUTO_SET_HANDLER?CONFIG
002FA2H   002FBFH   00001EH   BYTE   UNIT     CODE           ?PR?SPEED_LOW_SET_HANDLER?CONFIG
002FC0H   002FDDH   00001EH   BYTE   UNIT     CODE           ?PR?SPEED_MEDIUM_SET_HANDLER?CONFIG
002FDEH   00305FH   000082H   BYTE   UNIT     CODE           ?PR?KEY_SCHEDULING_EVENT_HANDLER?SYS
003060H   003097H   000038H   BYTE   UNIT     CODE           ?PR?ENTER_MAIN_PAGE?SYS
003098H   003244H   0001ADH   BYTE   UNIT     CODE           ?PR?SLEEP_HANDLER?SYS
003245H   003275H   000031H   BYTE   UNIT     CODE           ?PR?CONTROL_FUNCTION?CONTROL
003276H   0032F8H   000083H   BYTE   UNIT     CODE           ?PR?TC_STATUS_CHECK_HANDLER?CONTROL
0032F9H   0032FCH   000004H   BYTE   UNIT     CODE           ?PR?MODE_WIND_SPEED_HANDLER?CONTROL
0032FDH   0033F7H   0000FBH   BYTE   UNIT     CODE           ?PR?MODE_TEMPERATURE_HANDLER?CONTROL
0033F8H   003497H   0000A0H   BYTE   UNIT     CODE           ?PR?MODE_CONTROL_HANDLER?CONTROL
003498H   003578H   0000E1H   BYTE   UNIT     CODE           ?PR?WIND_SPEED_CONTROL_HANDLER?CONTROL
003579H   0035F6H   00007EH   BYTE   UNIT     CODE           ?PR?MODEPAGE_SET?CONTROL
0035F7H   003677H   000081H   BYTE   UNIT     CODE           ?PR?BRIGHTNESS_HANDLER?SYS
003678H   0036F9H   000082H   BYTE   UNIT     CODE           ?PR?CLOSE_VALVE?SYS
0036FAH   003788H   00008FH   BYTE   UNIT     CODE           ?PR?ALARM_HANDLER?SYS
003789H   0037D9H   000051H   BYTE   UNIT     CODE           ?PR?STANDBY_HANDLER?SYS
0037DAH   00387BH   0000A2H   BYTE   UNIT     CODE           ?PR?PARM_SET_ERROR_HANDLER?SYS
00387CH   0038B9H   00003EH   BYTE   UNIT     CODE           ?PR?_PAGE_CHANGE_HANDLER?SYS
0038BAH   003920H   000067H   BYTE   UNIT     CODE           ?PR?WARNING_EVENT_HANDLER?SYS
003921H   0039E2H   0000C2H   BYTE   UNIT     CODE           ?PR?_SCREEN_SAVER_HANDLER?SYS
0039E3H   0039F2H   000010H   BYTE   UNIT     CODE           ?PR?T0_INIT?SYS
0039F3H   003A02H   000010H   BYTE   UNIT     CODE           ?PR?T1_INIT?SYS
003A03H   003A18H   000016H   BYTE   UNIT     CODE           ?PR?T2_INIT?SYS
003A19H   003A6BH   000053H   BYTE   UNIT     CODE           ?PR?GET_ADC_VALUE?SYS
003A6CH   003DFBH   000390H   BYTE   UNIT     CODE           ?PR?_GET_TEMPERATURE?SYS
003DFCH   003F63H   000168H   BYTE   UNIT     CODE           ?PR?_FINDTAB?SYS
003F64H   00407DH   00011AH   BYTE   UNIT     CODE           ?PR?_GET_R_VALUE?SYS
00407EH   004132H   0000B5H   BYTE   UNIT     CODE           ?PR?T0_ISR_PC?SYS
004133H   00415FH   00002DH   BYTE   UNIT     CODE           ?PR?_IS_LEAP_YEAR?SYS
004160H   004288H   000129H   BYTE   UNIT     CODE           ?PR?TIME_SET_CONFIRM_HANDLER?CONFIG
004289H   004397H   00010FH   BYTE   UNIT     CODE           ?PR?_RTC_RESET?TIMER
004398H   004422H   00008BH   BYTE   UNIT     CODE           ?PR?_I2C_RTC_WRITE?TIMER
004423H   0044BDH   00009BH   BYTE   UNIT     CODE           ?PR?RTC_ACK?TIMER
0044BEH   004544H   000087H   BYTE   UNIT     CODE           ?PR?_RTC_SEND_BYTE?TIMER
004545H   00463AH   0000F6H   BYTE   UNIT     CODE           ?PR?_I2C_RTC_READ?TIMER
00463BH   0046B0H   000076H   BYTE   UNIT     CODE           ?PR?RTC_STOP?TIMER
0046B1H   004771H   0000C1H   BYTE   UNIT     CODE           ?PR?RTC_START?TIMER
004772H   0047C4H   000053H   BYTE   UNIT     CODE           ?PR?RTC_RUNFUNCTION?TIMER
0047C5H   0047D5H   000011H   BYTE   UNIT     CODE           ?PR?_BCDTOHEX?TIMER
0047D6H   0047E9H   000014H   BYTE   UNIT     CODE           ?PR?_HEXTOBCD?TIMER
0047EAH   004893H   0000AAH   BYTE   UNIT     CODE           ?PR?_RTC_GET_WEEK?SYS
004894H   004987H   0000F4H   BYTE   UNIT     CODE           ?PR?T1_ISR_PC?SYS
004988H   0049DDH   000056H   BYTE   UNIT     CODE           ?PR?T2_ISR_PC?SYS
0049DEH   004C58H   00027BH   BYTE   UNIT     CODE           ?PR?TIMER_CONFIG_HANDLER?CONTROL
004C59H   004D1BH   0000C3H   BYTE   UNIT     CODE           ?PR?WIND_SPEED_VAL_HANDLER?CONTROL
004D1CH   004DB9H   00009EH   BYTE   UNIT     CODE           ?PR?MODE_VAL_HANDLER?CONTROL
004DBAH   004ED8H   00011FH   BYTE   UNIT     CODE           ?PR?UART2COM?CONTROL
004ED9H   004F18H   000040H   BYTE   UNIT     CODE           ?PR?_UART2_SENDSTR?UART
004F19H   004F29H   000011H   BYTE   UNIT     CODE           ?PR?_UART2_SENDBYTE?UART
004F2AH   0054C4H   00059BH   BYTE   UNIT     CODE           ?PR?_M4G6_DATADEAL?CONTROL
0054C5H   005568H   0000A4H   BYTE   UNIT     CODE           ?PR?TEMPERATURE_SET_INCREASE?CONFIG
005569H   00560FH   0000A7H   BYTE   UNIT     CODE           ?PR?TMEPERATURE_SET_DECREASE?CONFIG
LX51 LINKER/LOCATER V4.58                                                             08/27/2019  16:41:25  PAGE 5


005610H   00562DH   00001EH   BYTE   UNIT     CODE           ?PR?SPEED_HIGH_SET_HANDLER?CONFIG
00562EH   0056CEH   0000A1H   BYTE   UNIT     CODE           ?PR?M4G6_DATARX?CONTROL
0056CFH   005750H   000082H   BYTE   UNIT     CODE           ?PR?_CALCULATE_CRC16?CONTROL
005751H   005772H   000022H   BYTE   UNIT     CODE           ?PR?SHUT_DOWN_CONFIRM_HANDLER?CONFIG
005773H   0057CAH   000058H   BYTE   UNIT     CODE           ?PR?PASSWORD_INPUT_CONFIRM_HANDLER?CONFIG
0057CBH   0057EEH   000024H   BYTE   UNIT     CODE           ?PR?PASSWORD_INPUT_CANCEL_HANDLER?CONFIG
0057EFH   005924H   000136H   BYTE   UNIT     CODE           ?PR?_TIMER_SEL_INIT_HANDLER?CONFIG
005925H   005A98H   000174H   BYTE   UNIT     CODE           ?PR?_TIMER_PERIOD_SEL_INIT_HANDLER?CONFIG
005A99H   005CA6H   00020EH   BYTE   UNIT     CODE           ?PR?_TIMER_TIME_SET_CONFIRM_HANDLER?CONFIG
005CA7H   005E12H   00016CH   BYTE   UNIT     CODE           ?PR?_TIMER_SPEED_MODE_SET_CONFIRM_HANDLER?CONFIG
005E13H   005E82H   000070H   BYTE   UNIT     CODE           ?PR?TEMPERATURE_SET_ENTER_INIT_HANDLER?CONFIG
005E83H   005EF1H   00006FH   BYTE   UNIT     CODE           ?PR?TIME_SET_INIT_HANDLER?CONFIG
005EF2H   005F61H   000070H   BYTE   UNIT     CODE           ?PR?ALARM_SET_INIT_HANDLER?CONFIG
005F62H   006002H   0000A1H   BYTE   UNIT     CODE           ?PR?_ALARM_SET_HANDLER?CONFIG
006003H   0060AEH   0000ACH   BYTE   UNIT     CODE           ?PR?_ALARM_SET_CONFIRM_HANDLER?CONFIG
0060AFH   0060DDH   00002FH   BYTE   UNIT     CODE           ?PR?SPEED_ADD_SET_HANDLER?CONFIG
0060DEH   00610EH   000031H   BYTE   UNIT     CODE           ?PR?SPEED_DECREASE_SET_HANDLER?CONFIG
00610FH   00613EH   000030H   BYTE   UNIT     CODE           ?PR?MODE_ADD_SET_HANDLER?CONFIG
00613FH   00616CH   00002EH   BYTE   UNIT     CODE           ?PR?_ASC_INPUT_HANDLER?CONFIG
00616DH   00617DH   000011H   BYTE   UNIT     CODE           ?PR?UART2_INIT?UART
00617EH   0061D4H   000057H   BYTE   UNIT     CODE           ?PR?UART2_ISR_PC?UART
0061D5H   0061E3H   00000FH   BYTE   UNIT     CODE           ?PR?UART3_INIT?UART
0061E4H   0061F4H   000011H   BYTE   UNIT     CODE           ?PR?_UART3_SENDBYTE?UART
0061F5H   006234H   000040H   BYTE   UNIT     CODE           ?PR?_UART3_SENDSTR?UART
006235H   006297H   000063H   BYTE   UNIT     CODE           ?PR?UART3_ISR_PC?UART
006298H   0062AAH   000013H   BYTE   UNIT     CODE           ?PR?UART5_INIT?UART
0062ABH   0062ABH   000001H   BYTE   UNIT     CODE           ?PR?UART5_TX_ISR_PC?UART
0062ACH   0062EFH   000044H   BYTE   UNIT     CODE           ?PR?UART5_RX_ISR_PC?UART
0062F0H   00635EH   00006FH   BYTE   UNIT     CODE           ?PR?RTC_SEND_ACK?TIMER
00635FH   0063BBH   00005DH   BYTE   UNIT     CODE           ?PR?RTC_NOACK?TIMER
0063BCH   006422H   000067H   BYTE   UNIT     CODE           ?PR?RTC_RECEIVE_BYTE?TIMER
006423H   006450H   00002EH   BYTE   UNIT     CODE           ?PR?RTC_INIT?TIMER
006451H   006570H   000120H   BYTE   UNIT     CODE           ?PR?TIME_UPDATE?TIMER
006571H   006593H   000023H   BYTE   UNIT     CODE           ?PR?I2C_READBYTE?VCNL4000
006594H   00663BH   0000A8H   BYTE   UNIT     CODE           ?PR?_VCNL4200_MEASUREMENTRESULT?VCNL4000

* * * * * * * * * * *  X D A T A   M E M O R Y  * * * * * * * * * * * * *
008000H   00822CH   00022DH   BYTE   UNIT     XDATA          ?XD?TP_DRAW
00822DH   0083B6H   00018AH   BYTE   UNIT     XDATA          ?XD?UART
0083B7H   0084DAH   000124H   BYTE   UNIT     XDATA          ?XD?ORC
0084DBH   0085D1H   0000F7H   BYTE   UNIT     XDATA          ?XD?SYS
0085D2H   0086B2H   0000E1H   BYTE   UNIT     XDATA          _XDATA_GROUP_
0086B3H   008775H   0000C3H   BYTE   UNIT     XDATA          ?XD?CONTROL
008776H   00880BH   000096H   BYTE   UNIT     XDATA          ?XD?CONFIG
00880CH   00881BH   000010H   BYTE   UNIT     XDATA          ?XD?VCNL4000
00881CH   00881EH   000003H   BYTE   UNIT     XDATA          ?XD?TIMER
00881FH   008820H   000002H   BYTE   UNIT     XDATA          ?XD?MAIN

* * * * * * * * *   R E M O V E D     S E G M E N T S   * * * * * * * *
   *DEL*:           000081H   BYTE   UNIT     CODE           ?PR?TIME_CALIBRATION?SYS
   *DEL*:           00000BH   BYTE   UNIT     CODE           ?PR?_UART5_SENDBYTE?UART
   *DEL*:           000045H   BYTE   UNIT     CODE           ?PR?_UART5_SENDSTR?UART
   *DEL*:           000003H   BYTE   UNIT     XDATA          ?XD?_UART5_SENDSTR?UART
   *DEL*:           00021EH   BYTE   UNIT     CODE           ?PR?_WRITE_DGUS_VP_TP?TP_DRAW
   *DEL*:           000015H   BYTE   UNIT     XDATA          ?XD?_WRITE_DGUS_VP_TP?TP_DRAW
   *DEL*:           0001EFH   BYTE   UNIT     CODE           ?PR?_READ_DGUS_VP_TP?TP_DRAW
   *DEL*:           000015H   BYTE   UNIT     XDATA          ?XD?_READ_DGUS_VP_TP?TP_DRAW
   *DEL*:           0000F2H   BYTE   UNIT     CODE           ?PR?_READ_RAM_VP?TP_DRAW
   *DEL*:           00000BH   BYTE   UNIT     XDATA          ?XD?_READ_RAM_VP?TP_DRAW
   *DEL*:           000160H   BYTE   UNIT     CODE           ?PR?_COSCALCU?TP_DRAW
   *DEL*:           000012H   BYTE   UNIT     XDATA          ?XD?_COSCALCU?TP_DRAW
   *DEL*:           0000C1H   BYTE   UNIT     CODE           ?PR?_GBKDATADEAL?TP_DRAW
   *DEL*:           000005H   BYTE   UNIT     XDATA          ?XD?_GBKDATADEAL?TP_DRAW
   *DEL*:           0001F6H   BYTE   UNIT     CODE           ?PR?TP_DRAWIN?TP_DRAW
   *DEL*:           00000CH   BYTE   UNIT     XDATA          ?XD?TP_DRAWIN?TP_DRAW
LX51 LINKER/LOCATER V4.58                                                             08/27/2019  16:41:25  PAGE 6


   *DEL*:           000042H   BYTE   UNIT     CONST          ?CO?TP_DRAW
   *DEL*:           000002H   BYTE   UNIT     DATA           ?DT?_GBKDATADEAL?TP_DRAW
   *DEL*:           000008H   BYTE   UNIT     DATA           ?DT?TP_DRAWIN?TP_DRAW
   *DEL*:           00000EH   BYTE   UNIT     CODE           ?PR?DELAY5MS?VCNL4000
   *DEL*:           000008H   BYTE   UNIT     CODE           ?PR?I2C_NOACK?VCNL4000
   *DEL*:           00002DH   BYTE   UNIT     CODE           ?PR?_I2C_WRITE?VCNL4000
   *DEL*:           000031H   BYTE   UNIT     CODE           ?PR?_I2C_READ?VCNL4000
   *DEL*:           00004FH   BYTE   UNIT     CODE           ?PR?_I2C_READREGISTER?VCNL4000
   *DEL*:           000006H   BYTE   UNIT     XDATA          ?XD?_I2C_READREGISTER?VCNL4000
   *DEL*:           000023H   BYTE   UNIT     CODE           ?PR?_ABSC?ORC
   *DEL*:           0007EAH   BYTE   UNIT     CODE           ?PR?_THINNERROSENFELD?ORC
   *DEL*:           000058H   BYTE   UNIT     XDATA          ?XD?_THINNERROSENFELD?ORC
   *DEL*:           0002BDH   BYTE   UNIT     CODE           ?PR?_FEATURE_EXTRACTION?ORC
   *DEL*:           00040FH   BYTE   UNIT     XDATA          ?XD?_FEATURE_EXTRACTION?ORC
   *DEL*:           0021CDH   BYTE   UNIT     CODE           ?PR?_COORDINATE_TRANSF?ORC
   *DEL*:           000DCDH   BYTE   UNIT     XDATA          ?XD?_COORDINATE_TRANSF?ORC
   *DEL*:           000328H   BYTE   UNIT     CODE           ?PR?_READ_GBKDATA?ORC
   *DEL*:           00000DH   BYTE   UNIT     XDATA          ?XD?_READ_GBKDATA?ORC
   *DEL*:           000DF6H   BYTE   UNIT     CONST          ?CO?ORC
   *DEL*:           000003H   BYTE   UNIT     DATA           ?DT?_ABSC?ORC
   *DEL*:           00000BH   BYTE   UNIT     DATA           ?DT?_FEATURE_EXTRACTION?ORC
   *DEL*:           000030H   BYTE   UNIT     DATA           ?DT?_COORDINATE_TRANSF?ORC
   *DEL*:           00002AH   BYTE   UNIT     DATA           ?DT?_READ_GBKDATA?ORC
   *DEL*:           000004H   BYTE   UNIT     XDATA          ?XD?SQRT?SQRT
   *DEL*:           0000ACH   BYTE   UNIT     CODE           ?PR?SQRT?SQRT



OVERLAY MAP OF MODULE:   .\obj\T5L51 (MAIN)


FUNCTION/MODULE                               XDATA_GROUP
--> CALLED FUNCTION/MODULE                    START  STOP
=========================================================
T0_ISR_PC/SYS                                 ----- -----

*** NEW ROOT ********************************

T1_ISR_PC/SYS                                 ----- -----
  +--> _IS_LEAP_YEAR/SYS
  +--> ?CO?SYS

_IS_LEAP_YEAR/SYS                             ----- -----

?CO?SYS                                       ----- -----

*** NEW ROOT ********************************

T2_ISR_PC/SYS                                 ----- -----

*** NEW ROOT ********************************

UART2_ISR_PC/UART                             ----- -----

*** NEW ROOT ********************************

UART3_ISR_PC/UART                             ----- -----

*** NEW ROOT ********************************

UART5_TX_ISR_PC/UART                          ----- -----

*** NEW ROOT ********************************

UART5_RX_ISR_PC/UART                          ----- -----
LX51 LINKER/LOCATER V4.58                                                             08/27/2019  16:41:25  PAGE 7



*** NEW ROOT ********************************

?C_C51STARTUP                                 ----- -----
  +--> MAIN/MAIN
  +--> ?C_INITSEG

MAIN/MAIN                                     ----- -----
  +--> INIT_CPU/SYS
  +--> PORT_INIT/SYS
  +--> T0_INIT/SYS
  +--> T1_INIT/SYS
  +--> T2_INIT/SYS
  +--> UART2_INIT/UART
  +--> UART3_INIT/UART
  +--> UART5_INIT/UART
  +--> ?CO?MAIN
  +--> _UART3_SENDSTR/UART
  +--> SYSTEM_PARM_INIT/SYS
  +--> VCNL4200_INIT/VCNL4000
  +--> TIME_UPDATE/TIMER
  +--> M4G6_DATARX/CONTROL
  +--> UART2COM/CONTROL
  +--> PARM_SET_FUNCTION/CONFIG
  +--> CONTROL_FUNCTION/CONTROL
  +--> _VCNL4200_MEASUREMENTRESULT/VCNL4000

INIT_CPU/SYS                                  ----- -----

PORT_INIT/SYS                                 ----- -----

T0_INIT/SYS                                   ----- -----

T1_INIT/SYS                                   ----- -----

T2_INIT/SYS                                   ----- -----

UART2_INIT/UART                               ----- -----

UART3_INIT/UART                               ----- -----

UART5_INIT/UART                               ----- -----

?CO?MAIN                                      ----- -----

_UART3_SENDSTR/UART                           85D2H 85D4H
  +--> _UART3_SENDBYTE/UART

_UART3_SENDBYTE/UART                          ----- -----

SYSTEM_PARM_INIT/SYS                          ----- -----
  +--> READ_NOR_FLASH/SYS
  +--> _DELAY_MS/SYS
  +--> _READ_DGUS_VP/SYS
  +--> _WRITE_DGUS_VP/SYS
  +--> PARM_RESET_INIT/SYS
  +--> WRITE_NOR_FLASH/SYS
  +--> ?CO?SYS
  +--> _WEEK_VAL/CONFIG
  +--> RTC_INIT/TIMER
  +--> RETURN_MAIN_PAGE/CONFIG

READ_NOR_FLASH/SYS                            ----- -----
  +--> ?CO?SYS
  +--> _WRITE_DGUS_VP/SYS
LX51 LINKER/LOCATER V4.58                                                             08/27/2019  16:41:25  PAGE 8


  +--> _DELAY_MS/SYS
  +--> _READ_DGUS_VP/SYS

_WRITE_DGUS_VP/SYS                            869EH 86B2H

_DELAY_MS/SYS                                 ----- -----

_READ_DGUS_VP/SYS                             869EH 86B2H

PARM_RESET_INIT/SYS                           ----- -----
  +--> _WRITE_DGUS_VP/SYS

WRITE_NOR_FLASH/SYS                           ----- -----
  +--> ?CO?SYS
  +--> _WRITE_DGUS_VP/SYS
  +--> _DELAY_MS/SYS
  +--> _READ_DGUS_VP/SYS

_WEEK_VAL/CONFIG                              ----- -----

RTC_INIT/TIMER                                85D2H 85D2H
  +--> _I2C_RTC_WRITE/TIMER
  +--> _DELAY_MS/SYS

_I2C_RTC_WRITE/TIMER                          85DCH 85DFH
  +--> RTC_START/TIMER
  +--> _RTC_SEND_BYTE/TIMER
  +--> RTC_ACK/TIMER
  +--> _HEXTOBCD/TIMER
  +--> RTC_STOP/TIMER

RTC_START/TIMER                               85E0H 85E0H

_RTC_SEND_BYTE/TIMER                          85E0H 85E0H

RTC_ACK/TIMER                                 85E0H 85E0H

_HEXTOBCD/TIMER                               ----- -----

RTC_STOP/TIMER                                85E0H 85E0H

RETURN_MAIN_PAGE/CONFIG                       ----- -----
  +--> _WRITE_DGUS_VP/SYS

VCNL4200_INIT/VCNL4000                        85D2H 85D3H
  +--> I2C_INITIAL/VCNL4000
  +--> _VCNL4200_WRITEONEWORDS/VCNL4000

I2C_INITIAL/VCNL4000                          ----- -----

_VCNL4200_WRITEONEWORDS/VCNL4000              ----- -----
  +--> I2C_START/VCNL4000
  +--> _I2C_SENDBYTE/VCNL4000
  +--> I2C_WAITACK/VCNL4000
  +--> I2C_STOP/VCNL4000
  +--> _DELAY_MS/SYS

I2C_START/VCNL4000                            ----- -----
  +--> I2C_DELAY/VCNL4000

I2C_DELAY/VCNL4000                            ----- -----

_I2C_SENDBYTE/VCNL4000                        ----- -----
  +--> I2C_DELAY/VCNL4000

LX51 LINKER/LOCATER V4.58                                                             08/27/2019  16:41:25  PAGE 9


I2C_WAITACK/VCNL4000                          ----- -----
  +--> I2C_DELAY/VCNL4000

I2C_STOP/VCNL4000                             ----- -----
  +--> I2C_DELAY/VCNL4000

TIME_UPDATE/TIMER                             85D2H 85D5H
  +--> RTC_RUNFUNCTION/TIMER
  +--> _RTC_GET_WEEK/SYS
  +--> _WRITE_DGUS_VP/SYS

RTC_RUNFUNCTION/TIMER                         ----- -----
  +--> _I2C_RTC_READ/TIMER
  +--> _I2C_RTC_WRITE/TIMER
  +--> _DELAY_MS/SYS

_I2C_RTC_READ/TIMER                           85D6H 85DAH
  +--> RTC_START/TIMER
  +--> _RTC_SEND_BYTE/TIMER
  +--> RTC_ACK/TIMER
  +--> RTC_RECEIVE_BYTE/TIMER
  +--> _BCDTOHEX/TIMER
  +--> RTC_SEND_ACK/TIMER
  +--> RTC_NOACK/TIMER
  +--> RTC_STOP/TIMER

RTC_RECEIVE_BYTE/TIMER                        85DBH 85DBH

_BCDTOHEX/TIMER                               ----- -----

RTC_SEND_ACK/TIMER                            85DBH 85DBH

RTC_NOACK/TIMER                               85DBH 85DBH

_RTC_GET_WEEK/SYS                             85D6H 85D7H
  +--> ?CO?SYS

M4G6_DATARX/CONTROL                           85D2H 85D4H
  +--> _CALCULATE_CRC16/CONTROL
  +--> _READ_DGUS_VP/SYS
  +--> _M4G6_DATADEAL/CONTROL

_CALCULATE_CRC16/CONTROL                      85D5H 85DBH
  +--> ?CO?CONTROL

?CO?CONTROL                                   ----- -----

_M4G6_DATADEAL/CONTROL                        85D5H 85D9H
  +--> _WRITE_DGUS_VP/SYS
  +--> _READ_DGUS_VP/SYS
  +--> _DELAY_MS/SYS
  +--> SPEED_AUTO_SET_HANDLER/CONFIG
  +--> STANDBY_HANDLER/SYS
  +--> SPEED_LOW_SET_HANDLER/CONFIG
  +--> TEMPERATURE_SET_INCREASE/CONFIG
  +--> TEMPERATURE_SET_CONFIRM_HANDLER/CONFIG
  +--> SPEED_HIGH_SET_HANDLER/CONFIG
  +--> TMEPERATURE_SET_DECREASE/CONFIG

SPEED_AUTO_SET_HANDLER/CONFIG                 ----- -----
  +--> _WRITE_DGUS_VP/SYS

STANDBY_HANDLER/SYS                           ----- -----
  +--> ?CO?SYS
  +--> _WRITE_DGUS_VP/SYS
LX51 LINKER/LOCATER V4.58                                                             08/27/2019  16:41:25  PAGE 10



SPEED_LOW_SET_HANDLER/CONFIG                  ----- -----
  +--> _WRITE_DGUS_VP/SYS

TEMPERATURE_SET_INCREASE/CONFIG               ----- -----
  +--> _READ_DGUS_VP/SYS
  +--> _WRITE_DGUS_VP/SYS

TEMPERATURE_SET_CONFIRM_HANDLER/CONFIG        ----- -----
  +--> _READ_DGUS_VP/SYS
  +--> _WRITE_DGUS_VP/SYS

SPEED_HIGH_SET_HANDLER/CONFIG                 ----- -----
  +--> _WRITE_DGUS_VP/SYS

TMEPERATURE_SET_DECREASE/CONFIG               ----- -----
  +--> _READ_DGUS_VP/SYS
  +--> _WRITE_DGUS_VP/SYS

UART2COM/CONTROL                              85D2H 869DH
  +--> ?CO?CONTROL
  +--> _WRITE_DGUS_VP/SYS
  +--> _UART2_SENDSTR/UART
  +--> _READ_DGUS_VP/SYS

_UART2_SENDSTR/UART                           869EH 86A0H
  +--> _UART2_SENDBYTE/UART

_UART2_SENDBYTE/UART                          ----- -----

PARM_SET_FUNCTION/CONFIG                      ----- -----
  +--> M4G6_HANDLER/CONFIG
  +--> _READ_DGUS_VP/SYS
  +--> STANDBY_BOOT_HANDLER/CONFIG
  +--> SHUT_DOWN_CONFIRM_HANDLER/CONFIG
  +--> SYSTEM_SET_ENTER_HANDLER/CONFIG
  +--> PASSWORD_INPUT_CONFIRM_HANDLER/CONFIG
  +--> PASSWORD_INPUT_CANCEL_HANDLER/CONFIG
  +--> RESET_CONFIRM_HANDLER/CONFIG
  +--> RESET_CANCEL_HANDLER/CONFIG
  +--> SYSTEM_SET_RETURN_HANDLER/CONFIG
  +--> ALARM_SELECT_RETURN_HANDLER/CONFIG
  +--> ADVANCE_SET_RERURN_HANDLER/CONFIG
  +--> _SAVE_WEEK_HANDLER/CONFIG
  +--> _TIMER_PERIOD_SEL_INIT_HANDLER/CONFIG
  +--> _TIMER_TIME_SET_CONFIRM_HANDLER/CONFIG
  +--> TIMER_TIME_SET_CANCEL_HANDLER/CONFIG
  +--> _TIMER_SPEED_MODE_SET_CONFIRM_HANDLER/CONFIG
  +--> _TIMER_SEL_INIT_HANDLER/CONFIG
  +--> TIMER_SPEED_MODE_SET_CANCEL_HANDLER/CONFIG
  +--> TIMER_WEEK_DISPLAY/CONFIG
  +--> TIMER_SELECT_RETURN_HANDLER/CONFIG
  +--> TEMPERATURE_SET_ENTER_INIT_HANDLER/CONFIG
  +--> TEMPERATURE_SET_CONFIRM_HANDLER/CONFIG
  +--> TEMPERATURE_SET_CANCEL_HANDLER/CONFIG
  +--> TEMPERATURE_SET_INCREASE/CONFIG
  +--> TMEPERATURE_SET_DECREASE/CONFIG
  +--> TIME_SET_INIT_HANDLER/CONFIG
  +--> TIME_SET_CONFIRM_HANDLER/CONFIG
  +--> TIME_SET_CANCEL_HANDLER/CONFIG
  +--> _ALARM_SET_HANDLER/CONFIG
  +--> _ALARM_SET_CONFIRM_HANDLER/CONFIG
  +--> ALARM_SET_INIT_HANDLER/CONFIG
  +--> ALARM_SET_CANCEL_HANDLER/CONFIG
  +--> MESSAGE_HANDLER/CONFIG
LX51 LINKER/LOCATER V4.58                                                             08/27/2019  16:41:25  PAGE 11


  +--> SHUT_DOWN_HANDLER/CONFIG
  +--> RETURN_MAIN_PAGE/CONFIG
  +--> SPEED_AUTO_SET_HANDLER/CONFIG
  +--> SPEED_LOW_SET_HANDLER/CONFIG
  +--> SPEED_MEDIUM_SET_HANDLER/CONFIG
  +--> SPEED_HIGH_SET_HANDLER/CONFIG
  +--> SPEED_ADD_SET_HANDLER/CONFIG
  +--> SPEED_DECREASE_SET_HANDLER/CONFIG
  +--> MODE_ADD_SET_HANDLER/CONFIG
  +--> _ASC_INPUT_HANDLER/CONFIG
  +--> _WRITE_DGUS_VP/SYS
  +--> PARM_UPLOAD_HANDLER/CONFIG
  +--> PARM_SET_ERROR_HANDLER/SYS
  +--> WARNING_EVENT_HANDLER/SYS
  +--> SAVE_DATA_HANDLER/SYS
  +--> ASC_DATA_HANDLER/CONFIG

M4G6_HANDLER/CONFIG                           85D2H 85D3H
  +--> ?CO?CONFIG
  +--> _READ_DGUS_VP/SYS
  +--> _WRITE_DGUS_VP/SYS
  +--> _M4G6_DATADEAL/CONTROL

?CO?CONFIG                                    ----- -----

STANDBY_BOOT_HANDLER/CONFIG                   ----- -----
  +--> _READ_DGUS_VP/SYS
  +--> STANDBY_HANDLER/SYS
  +--> BOOT_HANDLER/SYS

BOOT_HANDLER/SYS                              ----- -----
  +--> ENTER_MAIN_PAGE/SYS
  +--> _WRITE_DGUS_VP/SYS

ENTER_MAIN_PAGE/SYS                           ----- -----
  +--> RETURN_MAIN_PAGE/CONFIG
  +--> _READ_DGUS_VP/SYS
  +--> _WRITE_DGUS_VP/SYS

SHUT_DOWN_CONFIRM_HANDLER/CONFIG              ----- -----
  +--> _WRITE_DGUS_VP/SYS

SYSTEM_SET_ENTER_HANDLER/CONFIG               ----- -----

PASSWORD_INPUT_CONFIRM_HANDLER/CONFIG         ----- -----
  +--> _READ_DGUS_VP/SYS
  +--> _WRITE_DGUS_VP/SYS

PASSWORD_INPUT_CANCEL_HANDLER/CONFIG          ----- -----
  +--> _WRITE_DGUS_VP/SYS

RESET_CONFIRM_HANDLER/CONFIG                  ----- -----
  +--> PARM_RESET_INIT/SYS
  +--> _WRITE_DGUS_VP/SYS
  +--> RETURN_MAIN_PAGE/CONFIG

RESET_CANCEL_HANDLER/CONFIG                   ----- -----

SYSTEM_SET_RETURN_HANDLER/CONFIG              ----- -----

ALARM_SELECT_RETURN_HANDLER/CONFIG            ----- -----

ADVANCE_SET_RERURN_HANDLER/CONFIG             ----- -----

_SAVE_WEEK_HANDLER/CONFIG                     85D2H 85D4H
LX51 LINKER/LOCATER V4.58                                                             08/27/2019  16:41:25  PAGE 12


  +--> _READ_DGUS_VP/SYS
  +--> _WRITE_DGUS_VP/SYS

_TIMER_PERIOD_SEL_INIT_HANDLER/CONFIG         85D2H 85D5H
  +--> _WRITE_DGUS_VP/SYS

_TIMER_TIME_SET_CONFIRM_HANDLER/CONFIG        85D2H 85D6H
  +--> _READ_DGUS_VP/SYS
  +--> _WRITE_DGUS_VP/SYS

TIMER_TIME_SET_CANCEL_HANDLER/CONFIG          ----- -----

_TIMER_SPEED_MODE_SET_CONFIRM_HANDLER/CO+     85D2H 85D5H
... NFIG
  +--> _READ_DGUS_VP/SYS
  +--> _WRITE_DGUS_VP/SYS

_TIMER_SEL_INIT_HANDLER/CONFIG                85D2H 85D4H
  +--> _READ_DGUS_VP/SYS
  +--> _WRITE_DGUS_VP/SYS

TIMER_SPEED_MODE_SET_CANCEL_HANDLER/CONF+     ----- -----
... IG

TIMER_WEEK_DISPLAY/CONFIG                     ----- -----
  +--> _READ_DGUS_VP/SYS
  +--> _WEEK_VAL/CONFIG
  +--> _WRITE_DGUS_VP/SYS

TIMER_SELECT_RETURN_HANDLER/CONFIG            ----- -----

TEMPERATURE_SET_ENTER_INIT_HANDLER/CONFI+     ----- -----
... G
  +--> _READ_DGUS_VP/SYS
  +--> _WRITE_DGUS_VP/SYS

TEMPERATURE_SET_CANCEL_HANDLER/CONFIG         ----- -----

TIME_SET_INIT_HANDLER/CONFIG                  ----- -----
  +--> _WRITE_DGUS_VP/SYS

TIME_SET_CONFIRM_HANDLER/CONFIG               ----- -----
  +--> _READ_DGUS_VP/SYS
  +--> ?CO?SYS
  +--> _IS_LEAP_YEAR/SYS
  +--> _RTC_RESET/TIMER
  +--> RETURN_MAIN_PAGE/CONFIG

_RTC_RESET/TIMER                              85D2H 85DBH
  +--> ?CO?TIMER
  +--> _I2C_RTC_WRITE/TIMER

?CO?TIMER                                     ----- -----

TIME_SET_CANCEL_HANDLER/CONFIG                ----- -----
  +--> RETURN_MAIN_PAGE/CONFIG

_ALARM_SET_HANDLER/CONFIG                     85D2H 85D3H
  +--> _READ_DGUS_VP/SYS
  +--> _WRITE_DGUS_VP/SYS

_ALARM_SET_CONFIRM_HANDLER/CONFIG             85D2H 85D3H
  +--> _READ_DGUS_VP/SYS
  +--> _WRITE_DGUS_VP/SYS

LX51 LINKER/LOCATER V4.58                                                             08/27/2019  16:41:25  PAGE 13


ALARM_SET_INIT_HANDLER/CONFIG                 ----- -----
  +--> _READ_DGUS_VP/SYS
  +--> _WRITE_DGUS_VP/SYS

ALARM_SET_CANCEL_HANDLER/CONFIG               ----- -----

MESSAGE_HANDLER/CONFIG                        ----- -----
  +--> _WRITE_DGUS_VP/SYS
  +--> RETURN_MAIN_PAGE/CONFIG

SHUT_DOWN_HANDLER/CONFIG                      ----- -----
  +--> WRITE_NOR_FLASH/SYS

SPEED_MEDIUM_SET_HANDLER/CONFIG               ----- -----
  +--> _WRITE_DGUS_VP/SYS

SPEED_ADD_SET_HANDLER/CONFIG                  ----- -----
  +--> _WRITE_DGUS_VP/SYS

SPEED_DECREASE_SET_HANDLER/CONFIG             ----- -----
  +--> _WRITE_DGUS_VP/SYS

MODE_ADD_SET_HANDLER/CONFIG                   ----- -----
  +--> _WRITE_DGUS_VP/SYS

_ASC_INPUT_HANDLER/CONFIG                     85D2H 85D3H
  +--> _WRITE_DGUS_VP/SYS

PARM_UPLOAD_HANDLER/CONFIG                    ----- -----
  +--> ?CO?CONFIG
  +--> _WRITE_DGUS_VP/SYS

PARM_SET_ERROR_HANDLER/SYS                    85D2H 85D2H
  +--> _READ_DGUS_VP/SYS
  +--> _PAGE_CHANGE_HANDLER/SYS
  +--> _WRITE_DGUS_VP/SYS

_PAGE_CHANGE_HANDLER/SYS                      ----- -----
  +--> _WRITE_DGUS_VP/SYS

WARNING_EVENT_HANDLER/SYS                     85D2H 85D2H
  +--> _READ_DGUS_VP/SYS
  +--> _PAGE_CHANGE_HANDLER/SYS
  +--> _WRITE_DGUS_VP/SYS

SAVE_DATA_HANDLER/SYS                         ----- -----
  +--> WRITE_NOR_FLASH/SYS

ASC_DATA_HANDLER/CONFIG                       85D2H 85D4H
  +--> _READ_DGUS_VP/SYS
  +--> _WRITE_DGUS_VP/SYS

CONTROL_FUNCTION/CONTROL                      ----- -----
  +--> KEY_HANDLER/SYS
  +--> DISPLAY_TEMPERATURE/CONTROL
  +--> MODEPAGE_SET/CONTROL
  +--> _GET_TEMPERATURE/SYS
  +--> TIMER_CONFIG_HANDLER/CONTROL
  +--> CLOSE_VALVE/SYS
  +--> MODE_WIND_SPEED_HANDLER/CONTROL
  +--> BRIGHTNESS_HANDLER/SYS
  +--> ALARM_HANDLER/SYS
  +--> SLEEP_HANDLER/SYS
  +--> TC_STATUS_CHECK_HANDLER/CONTROL

LX51 LINKER/LOCATER V4.58                                                             08/27/2019  16:41:25  PAGE 14


KEY_HANDLER/SYS                               ----- -----
  +--> _DELAY_MS/SYS
  +--> _WRITE_DGUS_VP/SYS
  +--> KEY_SCHEDULING_EVENT_HANDLER/SYS

KEY_SCHEDULING_EVENT_HANDLER/SYS              ----- -----
  +--> _READ_DGUS_VP/SYS
  +--> _WRITE_DGUS_VP/SYS

DISPLAY_TEMPERATURE/CONTROL                   ----- -----
  +--> _READ_DGUS_VP/SYS
  +--> _WRITE_DGUS_VP/SYS

MODEPAGE_SET/CONTROL                          ----- -----
  +--> _READ_DGUS_VP/SYS
  +--> RETURN_MAIN_PAGE/CONFIG

_GET_TEMPERATURE/SYS                          85D2H 85DBH
  +--> GET_ADC_VALUE/SYS
  +--> _GET_R_VALUE/SYS
  +--> ?CO?SYS
  +--> _FINDTAB/SYS
  +--> _WRITE_DGUS_VP/SYS
  +--> _ABS/ABS

GET_ADC_VALUE/SYS                             ----- -----
  +--> _READ_DGUS_VP/SYS

_GET_R_VALUE/SYS                              85DCH 85E3H

_FINDTAB/SYS                                  85DCH 85E5H

_ABS/ABS                                      ----- -----

TIMER_CONFIG_HANDLER/CONTROL                  85D2H 85D2H
  +--> _READ_DGUS_VP/SYS
  +--> STANDBY_HANDLER/SYS
  +--> _WRITE_DGUS_VP/SYS

CLOSE_VALVE/SYS                               ----- -----
  +--> _WRITE_DGUS_VP/SYS

MODE_WIND_SPEED_HANDLER/CONTROL               ----- -----
  +--> WIND_SPEED_CONTROL_HANDLER/CONTROL
  +--> MODE_CONTROL_HANDLER/CONTROL
  +--> MODE_TEMPERATURE_HANDLER/CONTROL

WIND_SPEED_CONTROL_HANDLER/CONTROL            ----- -----
  +--> WIND_SPEED_VAL_HANDLER/CONTROL
  +--> _WRITE_DGUS_VP/SYS

WIND_SPEED_VAL_HANDLER/CONTROL                ----- -----
  +--> _READ_DGUS_VP/SYS
  +--> _ABS/ABS

MODE_CONTROL_HANDLER/CONTROL                  ----- -----
  +--> MODE_VAL_HANDLER/CONTROL
  +--> _WRITE_DGUS_VP/SYS

MODE_VAL_HANDLER/CONTROL                      ----- -----
  +--> _READ_DGUS_VP/SYS

MODE_TEMPERATURE_HANDLER/CONTROL              ----- -----

BRIGHTNESS_HANDLER/SYS                        ----- -----
LX51 LINKER/LOCATER V4.58                                                             08/27/2019  16:41:25  PAGE 15


  +--> _READ_DGUS_VP/SYS
  +--> _WRITE_DGUS_VP/SYS

ALARM_HANDLER/SYS                             ----- -----
  +--> _READ_DGUS_VP/SYS
  +--> _WRITE_DGUS_VP/SYS

SLEEP_HANDLER/SYS                             ----- -----
  +--> _READ_DGUS_VP/SYS
  +--> RETURN_MAIN_PAGE/CONFIG
  +--> PARM_UPLOAD_HANDLER/CONFIG
  +--> _SCREEN_SAVER_HANDLER/SYS
  +--> ENTER_MAIN_PAGE/SYS
  +--> _WRITE_DGUS_VP/SYS

_SCREEN_SAVER_HANDLER/SYS                     ----- -----
  +--> _WRITE_DGUS_VP/SYS

TC_STATUS_CHECK_HANDLER/CONTROL               ----- -----
  +--> _READ_DGUS_VP/SYS
  +--> ?CO?SYS
  +--> _WRITE_DGUS_VP/SYS
  +--> BOOT_HANDLER/SYS

_VCNL4200_MEASUREMENTRESULT/VCNL4000          85D2H 85D6H
  +--> _DELAY_MS/SYS
  +--> _VCNL4200_WRITEONEWORDS/VCNL4000
  +--> _VCNL4200_READONEWORDS/VCNL4000
  +--> _WRITE_DGUS_VP/SYS
  +--> BOOT_HANDLER/SYS

_VCNL4200_READONEWORDS/VCNL4000               ----- -----
  +--> I2C_START/VCNL4000
  +--> _I2C_SENDBYTE/VCNL4000
  +--> I2C_WAITACK/VCNL4000
  +--> I2C_READBYTE/VCNL4000
  +--> I2C_ACK/VCNL4000
  +--> I2C_STOP/VCNL4000

I2C_READBYTE/VCNL4000                         ----- -----
  +--> I2C_DELAY/VCNL4000

I2C_ACK/VCNL4000                              ----- -----
  +--> I2C_DELAY/VCNL4000

?C_INITSEG                                    ----- -----



PUBLIC SYMBOLS OF MODULE:  .\obj\T5L51 (MAIN)


      VALUE       CLASS    TYPE      PUBLIC SYMBOL NAME
      =================================================
*DEL*:00000000H   XDATA    BYTE      ?_coordinate_transf?BYTE
*DEL*:00000000H   XDATA    BYTE      ?_CosCalcu?BYTE
*DEL*:00000000H   XDATA    BYTE      ?_feature_extraction?BYTE
      020085DCH   XDATA    BYTE      ?_FindTab?BYTE
*DEL*:00000000H   XDATA    BYTE      ?_I2C_ReadRegister?BYTE
      0200869EH   XDATA    BYTE      ?_read_dgus_vp?BYTE
*DEL*:00000000H   XDATA    BYTE      ?_read_dgus_vp_tp?BYTE
*DEL*:00000000H   XDATA    BYTE      ?_read_ram_vp?BYTE
*DEL*:00000000H   XDATA    BYTE      ?_ThinnerRosenfeld?BYTE
      0200869EH   XDATA    BYTE      ?_write_dgus_vp?BYTE
*DEL*:00000000H   XDATA    BYTE      ?_write_dgus_vp_tp?BYTE
LX51 LINKER/LOCATER V4.58                                                             08/27/2019  16:41:25  PAGE 16


      010003DCH   CODE     ---       ?C?CASTF
      0100056CH   CODE     ---       ?C?CLDOPTR
      01000553H   CODE     ---       ?C?CLDPTR
      00000000H   NUMBER   ---       ?C?CODESEG
      0100052DH   CODE     ---       ?C?COPY
      010005ABH   CODE     ---       ?C?CSTOPTR
      01000599H   CODE     ---       ?C?CSTPTR
      010003A8H   CODE     ---       ?C?FCASTC
      010003A3H   CODE     ---       ?C?FCASTI
      0100039EH   CODE     ---       ?C?FCASTL
      01000107H   CODE     ---       ?C?FPADD
      01000301H   CODE     ---       ?C?FPDIV
      01000413H   CODE     ---       ?C?FPGETOPN2
      010001F8H   CODE     ---       ?C?FPMUL
      01000448H   CODE     ---       ?C?FPNANRESULT
      01000452H   CODE     ---       ?C?FPOVERFLOW
      0100042AH   CODE     ---       ?C?FPRESULT
      0100043EH   CODE     ---       ?C?FPRESULT2
      01000103H   CODE     ---       ?C?FPSUB
      0100044FH   CODE     ---       ?C?FPUNDERFLOW
      010008A7H   CODE     ---       ?C?ICASE
      0100066AH   CODE     ---       ?C?IILDX
      01000680H   CODE     ---       ?C?ILDIX
      01000696H   CODE     ---       ?C?ILDOPTR
      010005CDH   CODE     ---       ?C?IMUL
      010006CEH   CODE     ---       ?C?ISTPTR
      010008D4H   CODE     ---       ?C?LIMUL
      01000852H   CODE     ---       ?C?LLDXDATA
      010006EDH   CODE     ---       ?C?LMUL
      0100080AH   CODE     ---       ?C?LNEG
      0100086AH   CODE     ---       ?C?LSTKXDATA
      0100085EH   CODE     ---       ?C?LSTXDATA
      01000A9CH   CODE     ---       ?C?MEMSET
      0100089BH   CODE     ---       ?C?OFFXADD
      01000634H   CODE     ---       ?C?SIDIV
      01000818H   CODE     ---       ?C?SLCMP
      01000A7FH   CODE     ---       ?C?STRCMP
      010005DFH   CODE     ---       ?C?UIDIV
      0100082EH   CODE     ---       ?C?ULCMP
      01000778H   CODE     ---       ?C?ULDIV
      0100083FH   CODE     ---       ?C?ULSHR
      00000000H   NUMBER   ---       ?C?XDATASEG
      01001158H   CODE     ---       ?C_START
      01000000H   CODE     ---       ?C_STARTUP
      0100119DH   CODE     ---       _ABS
*DEL*:00000000H   CODE     ---       _absC
      01006003H   CODE     ---       _Alarm_Set_Confirm_Handler
      01005F62H   CODE     ---       _Alarm_Set_Handler
      0100613FH   CODE     ---       _Asc_Input_Handler
      010047C5H   CODE     ---       _bcdtohex
      010056CFH   CODE     ---       _Calculate_CRC16
*DEL*:00000000H   CODE     ---       _coordinate_transf
*DEL*:00000000H   CODE     ---       _CosCalcu
      01001FD5H   CODE     ---       _delay_ms
*DEL*:00000000H   CODE     ---       _feature_extraction
      01003E0AH   CODE     ---       _FindTab
*DEL*:00000000H   CODE     ---       _GbkDatadeal
      01003F64H   CODE     ---       _Get_R_Value
      01003A6CH   CODE     ---       _Get_Temperature
      010047D6H   CODE     ---       _hextobcd
*DEL*:00000000H   CODE     ---       _I2C_Read
*DEL*:00000000H   CODE     ---       _I2C_ReadRegister
      0100454DH   CODE     ---       _I2C_RTC_Read
      01004398H   CODE     ---       _I2C_RTC_Write
      01001745H   CODE     ---       _I2C_SendByte
LX51 LINKER/LOCATER V4.58                                                             08/27/2019  16:41:25  PAGE 17


*DEL*:00000000H   CODE     ---       _I2C_Write
      01004133H   CODE     ---       _Is_Leap_Year
      01004F2AH   CODE     ---       _M4G6_DataDeal
      01003881H   CODE     ---       _Page_Change_Handler
      01001C79H   CODE     ---       _read_dgus_vp
*DEL*:00000000H   CODE     ---       _read_dgus_vp_tp
*DEL*:00000000H   CODE     ---       _Read_Gbkdata
*DEL*:00000000H   CODE     ---       _read_ram_vp
      010047EAH   CODE     ---       _RTC_Get_Week
      01004289H   CODE     ---       _RTC_Reset
      010044BEH   CODE     ---       _RTC_Send_Byte
      01002C89H   CODE     ---       _Save_Week_Handler
      01003921H   CODE     ---       _Screen_Saver_Handler
*DEL*:00000004H   CODE     ---       _SQRT
*DEL*:00000000H   CODE     ---       _ThinnerRosenfeld
      01005925H   CODE     ---       _Timer_Period_Sel_Init_Handler
      010057EFH   CODE     ---       _Timer_Sel_Init_Handler
      01005CA7H   CODE     ---       _Timer_Speed_Mode_Set_Confirm_Handler
      01005A99H   CODE     ---       _Timer_Time_Set_Confirm_Handler
      01004F19H   CODE     ---       _UART2_Sendbyte
      01004ED9H   CODE     ---       _UART2_SendStr
      010061E4H   CODE     ---       _UART3_Sendbyte
      010061F5H   CODE     ---       _UART3_SendStr
*DEL*:00000000H   CODE     ---       _UART5_Sendbyte
*DEL*:00000000H   CODE     ---       _UART5_SendStr
      01006594H   CODE     ---       _VCNL4200_MeasurementResult
      01001780H   CODE     ---       _VCNL4200_ReadOneWords
      010016FDH   CODE     ---       _VCNL4200_WriteOneWords
      01001FE0H   CODE     ---       _Week_Val
      0100220AH   CODE     ---       _write_dgus_vp
*DEL*:00000000H   CODE     ---       _write_dgus_vp_tp
*SFR* 000000D0H.6 DATA     BIT       AC
*SFR* 000000E0H   DATA     BYTE      ACC
      020085B8H   XDATA    WORD      AD_Count
      0200858DH   XDATA    ---       adc_val
      02008555H   XDATA    ---       adc_value
*SFR* 000000D8H   DATA     BYTE      ADCON
*SFR* 000000F1H   DATA     BYTE      ADR_H
*SFR* 000000F4H   DATA     BYTE      ADR_INC
*SFR* 000000F3H   DATA     BYTE      ADR_L
*SFR* 000000F2H   DATA     BYTE      ADR_M
      01002F43H   CODE     ---       Advance_Set_Rerurn_Handler
      02008783H   XDATA    ---       Alarm_Display
      010036FAH   CODE     ---       Alarm_Handler
      020085C8H   XDATA    ---       Alarm_Key
      0200880AH   XDATA    WORD      Alarm_Sel
      02008565H   XDATA    WORD      Alarm_Select
      01002F42H   CODE     ---       Alarm_Select_Return_Handler
      01002F48H   CODE     ---       Alarm_Set_Cancel_Handler
      01005EF2H   CODE     ---       Alarm_Set_Init_Handler
      020087E7H   XDATA    ---       alarm_set_val
      020085A7H   XDATA    WORD      Alarm_Status
      02008569H   XDATA    ---       alarm_val
      02008505H   XDATA    WORD      ALS_Function
*SFR* 000000F8H.4 DATA     BIT       APP_ACK
*SFR* 000000F8H.6 DATA     BIT       APP_EN
*SFR* 000000F8H.7 DATA     BIT       APP_REQ
*SFR* 000000F8H.5 DATA     BIT       APP_RW
      01002ACDH   CODE     ---       ASC_Data_Handler
      00000037H   DATA     WORD      Asc_num
*SFR* 000000F0H   DATA     BYTE      B
*SFR* 000000D9H   DATA     BYTE      BODE2_DIV_H
*SFR* 000000E7H   DATA     BYTE      BODE2_DIV_L
*SFR* 000000AEH   DATA     BYTE      BODE3_DIV_H
*SFR* 000000AFH   DATA     BYTE      BODE3_DIV_L
LX51 LINKER/LOCATER V4.58                                                             08/27/2019  16:41:25  PAGE 18


      01002EEAH   CODE     ---       Boot_Handler
      010035F7H   CODE     ---       Brightness_Handler
*SFR* 0000008FH   DATA     BYTE      CAN_CR
*SFR* 000000E8H   DATA     BYTE      CAN_ET
*SFR* 00000091H   DATA     BYTE      CAN_IR
*SFR* 0000008EH   DATA     BYTE      CKCON
      01003678H   CODE     ---       Close_Valve
      02008573H   XDATA    BYTE      Close_Valve_Flag
      01003245H   CODE     ---       Control_Function
      02008228H   XDATA    ---       Coord_in
      02008000H   XDATA    ---       Coord_XY
      010011A9H   CONST    ---       CRCTABH
      010012A9H   CONST    ---       CRCTABL
*SFR* 000000D0H.7 DATA     BIT       CY
*SFR* 00000095H   DATA     BYTE      D_PAGESEL
*SFR* 000000FDH   DATA     BYTE      DATA0
*SFR* 000000FCH   DATA     BYTE      DATA1
*SFR* 000000FBH   DATA     BYTE      DATA2
*SFR* 000000FAH   DATA     BYTE      DATA3
      02008809H   XDATA    BYTE      datact
      020087C3H   XDATA    ---       datainput
      0000002EH   DATA     ---       date_time
*DEL*:00000000H   CODE     ---       delay5ms
      01001E66H   CODE     ---       Display_Temperature
*SFR* 000000E6H   DATA     BYTE      DIV_MODE
*SFR* 00000093H   DATA     BYTE      DPC
*SFR* 00000083H   DATA     BYTE      DPH
*SFR* 00000082H   DATA     BYTE      DPL
      0200845BH   XDATA    ---       E1
*SFR* 000000A8H.7 DATA     BIT       EA
*SFR* 000000B8H.1 DATA     BIT       ECAN
      01003060H   CODE     ---       Enter_Main_Page
*SFR* 000000A8H.4 DATA     BIT       ES0
*SFR* 000000B8H.3 DATA     BIT       ES2R
*SFR* 000000B8H.2 DATA     BIT       ES2T
*SFR* 000000B8H.5 DATA     BIT       ES3R
*SFR* 000000B8H.4 DATA     BIT       ES3T
*SFR* 000000A8H.1 DATA     BIT       ET0
*SFR* 000000A8H.3 DATA     BIT       ET1
*SFR* 000000A8H.5 DATA     BIT       ET2
*SFR* 000000A8H   DATA     BIT       EX0
*SFR* 000000A8H.2 DATA     BIT       EX1
*SFR* 000000FEH   DATA     BYTE      EXADR
*SFR* 000000FFH   DATA     BYTE      EXDATA
*SFR* 000000D0H.5 DATA     BIT       F0
*SFR* 000000D0H.1 DATA     BIT       F1
*DEL*:00000010H   CONST    ---       Gbk_san
      02008128H   XDATA    ---       Gbk_XY
      01003A19H   CODE     ---       Get_ADC_Value
*SFR* 00000090H.2 DATA     BIT       High_Speed_Valve
      0200876BH   XDATA    WORD      Hour_Min_R
      0200878DH   XDATA    WORD      Hour_Min_Set
      010017DDH   CODE     ---       I2C_Ack
      0100177BH   CODE     ---       I2C_delay
      010017ECH   CODE     ---       I2C_Initial
*SFR* 00000090H.6 DATA     BIT       I2C_INT_PORT
*DEL*:00000000H   CODE     ---       I2C_NoAck
      01006571H   CODE     ---       I2C_ReadByte
*SFR* 00000090H.7 DATA     BIT       I2C_SCLDATA_PORT
*SFR* 00000090H.5 DATA     BIT       I2C_SDADATA_PORT
      010017B2H   CODE     ---       I2C_Start
      0100179DH   CODE     ---       I2C_Stop
      01001729H   CODE     ---       I2C_WaitAck
*SFR* 00000088H.1 DATA     BIT       IE0
*SFR* 00000088H.3 DATA     BIT       IE1
LX51 LINKER/LOCATER V4.58                                                             08/27/2019  16:41:25  PAGE 19


*SFR* 000000A8H   DATA     BYTE      IEN0
*SFR* 000000B8H   DATA     BYTE      IEN1
*SFR* 0000009AH   DATA     BYTE      IEN2
      010017F3H   CODE     ---       INIT_CPU
      02008799H   XDATA    ---       input_Ascdata
*SFR* 000000A9H   DATA     BYTE      IP0
*SFR* 000000B9H   DATA     BYTE      IP1
*SFR* 000000C0H   DATA     BYTE      IRCON
*SFR* 000000BFH   DATA     BYTE      IRCON2
*SFR* 00000088H   DATA     BIT       IT0
*SFR* 00000088H.2 DATA     BIT       IT1
*SFR* 000000A0H.2 DATA     BIT       KEY1_Vin_F
      0000000AH   DATA     WORD      Key_Count
      0100271AH   CODE     ---       Key_Handler
      01002FDEH   CODE     ---       Key_Scheduling_Event_Handler
      02008521H   XDATA    WORD      Key_Status
      02008503H   XDATA    WORD      Key_Value
      0200881DH   XDATA    BYTE      last_hour
      02008587H   XDATA    WORD      led_icon
      00000018H   DATA     WORD      led_new
      01001636H   CONST    ---       led_off
      020085A1H   XDATA    WORD      led_old
      020085BAH   XDATA    ---       led_on
*SFR* 00000090H.1 DATA     BIT       Low_Speed_Valve
      0200849BH   XDATA    ---       M1
      020083B7H   XDATA    ---       M2
      02008571H   XDATA    WORD      M4G6_ct
      0100562EH   CODE     ---       M4G6_dataRx
      01002E48H   CODE     ---       M4G6_Handler
*SFR* 000000E5H   DATA     BYTE      MAC_MODE
      02008563H   XDATA    WORD      Magic_Number
      0100165AH   CODE     ---       main
*SFR* 00000090H.4 DATA     BIT       Medium_Speed_Valve
      01002F66H   CODE     ---       Message_Handler
      0200878BH   XDATA    WORD      Message_Status
      0200859DH   XDATA    WORD      Message_Val
      0000001AH   DATA     WORD      Mode
      0100610FH   CODE     ---       Mode_Add_Set_Handler
      02008721H   XDATA    WORD      Mode_Config_Flag
      010033F8H   CODE     ---       Mode_Control_Handler
      0000001EH   DATA     WORD      Mode_old
      020086BBH   XDATA    WORD      Mode_Old_Val
      02008771H   XDATA    WORD      Mode_Set_Flag
      010032FDH   CODE     ---       Mode_Temperature_Handler
      0000001CH   DATA     WORD      Mode_Val
      01004D1CH   CODE     ---       Mode_Val_Handler
      010032F9H   CODE     ---       Mode_Wind_Speed_Handler
      01003579H   CODE     ---       ModePage_Set
      01001613H   CONST    ---       mon_table
      02008731H   XDATA    WORD      movie_icon
*SFR* 000000C9H   DATA     BYTE      MUX_SEL
*SFR* 000000D0H.2 DATA     BIT       OV
*SFR* 000000D0H   DATA     BIT       P
*SFR* 00000080H   DATA     BYTE      P0
*SFR* 000000B7H   DATA     BYTE      P0MDOUT
*SFR* 00000090H   DATA     BYTE      P1
*SFR* 000000BCH   DATA     BYTE      P1MDOUT
*SFR* 000000A0H   DATA     BYTE      P2
*SFR* 000000A0H.1 DATA     BIT       P2_1
*SFR* 000000BDH   DATA     BYTE      P2MDOUT
*SFR* 000000B0H   DATA     BYTE      P3
*SFR* 000000BEH   DATA     BYTE      P3MDOUT
      02008778H   XDATA    WORD      p_sel
      0200853BH   XDATA    ---       Page_Change
      0200855DH   XDATA    WORD      Page_Change_Val
LX51 LINKER/LOCATER V4.58                                                             08/27/2019  16:41:25  PAGE 20


      02008589H   XDATA    ---       page_set
      0100163AH   CONST    ---       page_set_to_0
      02008567H   XDATA    WORD      PageNow
*SFR* 00000094H   DATA     BYTE      PAGESEL
      02008551H   XDATA    WORD      Parm_Change_Count
      0200855FH   XDATA    WORD      Parm_Change_Count_Val
      0200877AH   XDATA    BYTE      Parm_Change_Flag
      01002423H   CODE     ---       Parm_Reset_Init
      010037DAH   CODE     ---       Parm_Set_Error_Handler
      02008776H   XDATA    WORD      Parm_Set_Error_Val
      0100284DH   CODE     ---       Parm_Set_Function
      0100164BH   CONST    ---       Parm_Upload_Array
      01002F4CH   CODE     ---       Parm_Upload_Handler
      020085A3H   XDATA    DWORD     Password
      010057CBH   CODE     ---       Password_Input_Cancel_Handler
      01005773H   CODE     ---       Password_Input_Confirm_Handler
      0200877DH   XDATA    DWORD     password_val
*SFR* 00000087H   DATA     BYTE      PCON
      02008459H   XDATA    ---       Pmove1
      01001868H   CODE     ---       PORT_Init
*SFR* 000000F9H   DATA     BYTE      PORTDRV
      020085B7H   XDATA    BYTE      Power_Flag
      0200881FH   XDATA    ---       ProxResult
*SFR* 000000D0H   DATA     BYTE      PSW
      020085C4H   XDATA    WORD      R1_Temperature
      020084FBH   XDATA    WORD      R1_value
      020085C6H   XDATA    WORD      R2_Temperature
      020084FDH   XDATA    WORD      R2_value
      02008100H   XDATA    ---       ramdata_rd
*SFR* 000000F8H   DATA     BYTE      RAMMODE
      0100161FH   CONST    ---       read_flash
      0200852FH   XDATA    ---       read_flash_status
      01002196H   CODE     ---       Read_Nor_Flash
      02008437H   XDATA    ---       ReadGb
      02008515H   XDATA    WORD      Real_Hour_Min
      02008574H   XDATA    ---       real_time
      02008537H   XDATA    WORD      Remote_Update_Status
      01002F40H   CODE     ---       Reset_Cancel_Handler
      010027A1H   CODE     ---       Reset_Confirm_Handler
      010027C2H   CODE     ---       Return_Main_page
*SFR* 00000098H   DATA     BIT       RI0
*SFR* 000000D0H.3 DATA     BIT       RS0
*SFR* 000000D0H.4 DATA     BIT       RS1
*SFR* 00000080H.1 DATA     BIT       RS485_TX_EN
      0100442FH   CODE     ---       RTC_Ack
      0200881EH   XDATA    BYTE      RTC_fault
      01006423H   CODE     ---       RTC_init
      0100635FH   CODE     ---       RTC_NOAck
      010063BCH   CODE     ---       RTC_Receive_Byte
      01004772H   CODE     ---       RTC_RunFunction
*SFR* 000000B0H.2 DATA     BIT       RTC_SCLDATA_PORT
*SFR* 000000B0H.3 DATA     BIT       RTC_SDADATA_PORT
      010062F0H   CODE     ---       RTC_Send_Ack
      010046B1H   CODE     ---       RTC_Start
      0100463BH   CODE     ---       RTC_Stop
      020087FFH   XDATA    ---       RTC_Time_Set
      020083F7H   XDATA    ---       S1
      01002E96H   CODE     ---       Save_Data_Handler
*SFR* 00000099H   DATA     BYTE      SBUF0
*SFR* 0000009CH   DATA     BYTE      SBUF1
*SFR* 0000009FH   DATA     BYTE      SBUF2_RX
*SFR* 0000009EH   DATA     BYTE      SBUF2_TX
*SFR* 000000ADH   DATA     BYTE      SBUF3_RX
*SFR* 000000ACH   DATA     BYTE      SBUF3_TX
*SFR* 00000098H   DATA     BYTE      SCON0
LX51 LINKER/LOCATER V4.58                                                             08/27/2019  16:41:25  PAGE 21


*SFR* 0000009BH   DATA     BYTE      SCON1
*SFR* 00000097H   DATA     BYTE      SCON2R
*SFR* 00000096H   DATA     BYTE      SCON2T
*SFR* 000000ABH   DATA     BYTE      SCON3R
*SFR* 000000A7H   DATA     BYTE      SCON3T
      0200851FH   XDATA    WORD      screen_count
      02008586H   XDATA    BYTE      Screen_Flag
      0200857EH   XDATA    ---       Screen_Saver_Parm
      020084F2H   XDATA    WORD      Second_Updata_Flag
      02008761H   XDATA    WORD      Set_Temper_Display_Val
      0200872FH   XDATA    WORD      Set_Temper_Display_Val_Dec
      0200878FH   XDATA    WORD      Set_Temperature_Set_Val
      02008781H   XDATA    WORD      Set_Temperature_Set_Val_Dec
      0200872DH   XDATA    WORD      Set_Temperature_Val_Old
      01005751H   CODE     ---       Shut_Down_Confirm_Handler
      01002848H   CODE     ---       Shut_Down_Handler
      020085CFH   XDATA    BYTE      Shut_Dwon_Flag
      020085B3H   XDATA    WORD      Sleep_Count
      02008523H   XDATA    WORD      Sleep_Count_M
      020085A9H   XDATA    WORD      Sleep_Flag
      01003098H   CODE     ---       Sleep_Handler
      02008561H   XDATA    WORD      sleep_time
      020084F7H   XDATA    WORD      Sleep_Type
      020084F6H   XDATA    BYTE      Sleep_Val
      01001631H   CONST    ---       Soft_Ver
      0100162FH   CONST    WORD      Soft_Ver_Num
*SFR* 00000081H   DATA     BYTE      SP
      020086B7H   XDATA    ---       SpeakCmd
      010060AFH   CODE     ---       Speed_Add_Set_Handler
      01002F84H   CODE     ---       Speed_Auto_Set_Handler
      010060DEH   CODE     ---       Speed_Decrease_Set_Handler
      01005610H   CODE     ---       Speed_High_Set_Handler
      01002FA2H   CODE     ---       Speed_Low_Set_Handler
      01002FC0H   CODE     ---       Speed_Medium_Set_Handler
      02008584H   XDATA    WORD      Speed_Valve_Status
*SFR* 000000BAH   DATA     BYTE      SREL0H
*SFR* 000000AAH   DATA     BYTE      SREL0L
*SFR* 000000BBH   DATA     BYTE      SREL1H
*SFR* 0000009DH   DATA     BYTE      SREL1L
      01002E15H   CODE     ---       Standby_Boot_Handler
      01003789H   CODE     ---       Standby_Handler
      0200822CH   XDATA    ---       sx
*DEL*:00000000H   CONST    ---       Sx_Cmd_Code
      0200822AH   XDATA    WORD      sxi
      01001872H   CODE     ---       System_Parm_Init
      01002F3FH   CODE     ---       System_Set_Enter_Handler
      01002F41H   CODE     ---       System_Set_Return_Handler
      010039E3H   CODE     ---       T0_Init
      0100407EH   CODE     ---       T0_ISR_PC
      010039F3H   CODE     ---       T1_Init
      01004894H   CODE     ---       T1_ISR_PC
      01003A03H   CODE     ---       T2_Init
      01004988H   CODE     ---       T2_ISR_PC
*SFR* 000000C8H   DATA     BYTE      T2CON
      0200877BH   XDATA    WORD      t_sel
      01001601H   CONST    ---       table_week
      01001539H   CONST    ---       TabNTC2_10k
      01001471H   CONST    ---       TabNTC_10k
      020084F0H   XDATA    WORD      TC_Status
      01003276H   CODE     ---       TC_Status_Check_Handler
      020084F4H   XDATA    WORD      TC_Status_Old
*SFR* 00000088H   DATA     BYTE      TCON
      020085BEH   XDATA    ---       Temp_Coef
      02008501H   XDATA    WORD      Temp_Freq
      02008539H   XDATA    WORD      Temp_Pre
LX51 LINKER/LOCATER V4.58                                                             08/27/2019  16:41:25  PAGE 22


      0200855BH   XDATA    WORD      Temp_time
      02008733H   XDATA    WORD      Temper_Display_Val
      02008729H   XDATA    WORD      Temper_Display_Val_Dec
      020085D0H   XDATA    WORD      Temperatrue_Real_Old
      020084F9H   XDATA    WORD      Temperature_Lower
      0200854FH   XDATA    WORD      Temperature_Precision
      020085CDH   XDATA    WORD      Temperature_Real
      01002F47H   CODE     ---       Temperature_Set_Cancel_Handler
      01002C2DH   CODE     ---       Temperature_Set_Confirm_Handler
      01005E13H   CODE     ---       Temperature_Set_Enter_Init_Handler
      010054C5H   CODE     ---       Temperature_Set_Increase
      02008553H   XDATA    WORD      Temperature_Set_Val
      0200872BH   XDATA    WORD      Temperature_To_Set_Flag
      020084FFH   XDATA    WORD      Temperature_Upper
      0200871FH   XDATA    WORD      Temperature_Val_Old
      00000026H   DATA     ---       tese_p
      0100163EH   CONST    ---       test
*SFR* 00000088H.5 DATA     BIT       TF0
*SFR* 00000088H.7 DATA     BIT       TF1
*SFR* 000000C0H.6 DATA     BIT       TF2
*SFR* 0000008CH   DATA     BYTE      TH0
*SFR* 0000008DH   DATA     BYTE      TH1
*SFR* 000000CDH   DATA     BYTE      TH2
*SFR* 00000098H.1 DATA     BIT       TI0
      020086BDH   XDATA    WORD      tim_k
      020086BFH   XDATA    ---       tim_per_val
      02008723H   XDATA    ---       tim_week_c
      020085ABH   XDATA    ---       time_calibra
*DEL*:00000000H   CODE     ---       Time_Calibration
      02008507H   XDATA    ---       time_display
      01002F49H   CODE     ---       Time_Set_Cancel_Handler
      01004160H   CODE     ---       Time_Set_Confirm_Handler
      0100160DH   CONST    ---       time_set_init
      01005E83H   CODE     ---       Time_Set_Init_Handler
      01006451H   CODE     ---       Time_Update
      010049DEH   CODE     ---       Timer_Config_Handler
      02008765H   XDATA    ---       timer_key
      02008735H   XDATA    WORD      Timer_Parm_Read_Flag
      020087EDH   XDATA    ---       timer_period_display
      01002F46H   CODE     ---       Timer_Select_Return_Handler
      02008791H   XDATA    ---       timer_set_period
      020087C1H   XDATA    WORD      timer_speed_mode_set
      01002F45H   CODE     ---       Timer_Speed_Mode_Set_Cancel_Handler
      020085B5H   XDATA    WORD      Timer_Status
      020087FDH   XDATA    WORD      timer_temperature_set
      01002F44H   CODE     ---       Timer_Time_Set_Cancel_Handler
      02008773H   XDATA    ---       timer_trigger_flag
      02008737H   XDATA    ---       timer_week
      01001F6DH   CODE     ---       Timer_Week_Display
      020087D9H   XDATA    ---       timer_week_set
*SFR* 0000008AH   DATA     BYTE      TL0
*SFR* 0000008BH   DATA     BYTE      TL1
*SFR* 000000CCH   DATA     BYTE      TL2
      01005569H   CODE     ---       Tmeperature_Set_Decrease
*SFR* 00000089H   DATA     BYTE      TMOD
      00000035H   DATA     WORD      Touch_Event_Flag
*DEL*:00000000H   CODE     ---       TP_drawin
      02008527H   XDATA    ---       TP_Status_New
      02008517H   XDATA    ---       TP_Status_Old
*SFR* 00000088H.4 DATA     BIT       TR0
*SFR* 00000088H.6 DATA     BIT       TR1
*SFR* 000000C8H   DATA     BIT       TR2
*SFR* 000000CBH   DATA     BYTE      TRL2H
*SFR* 000000CAH   DATA     BYTE      TRL2L
      020082AFH   XDATA    BYTE      uart2_busy
LX51 LINKER/LOCATER V4.58                                                             08/27/2019  16:41:25  PAGE 23


      0100616DH   CODE     ---       UART2_Init
      0100617EH   CODE     ---       UART2_ISR_PC
      020082B7H   XDATA    ---       Uart2_Rx
      020082B1H   XDATA    WORD      uart2_rx_count
      020082ADH   XDATA    BYTE      Uart2_TTL_Status
      01004DBAH   CODE     ---       uart2com
      00000010H   DATA     WORD      Uart2RxCt
      020082B0H   XDATA    BYTE      uart3_busy
      010061D5H   CODE     ---       UART3_Init
      01006235H   CODE     ---       UART3_ISR_PC
      02008337H   XDATA    ---       Uart3_Rx
      020082B3H   XDATA    WORD      uart3_rx_count
      020082AEH   XDATA    BYTE      Uart3_TTL_Status
      00000012H   DATA     WORD      Uart3RxCt
      00000014H   DATA     WORD      Uart4RxCt
      01006298H   CODE     ---       UART5_Init
      0200822DH   XDATA    ---       Uart5_Rx
      020082B5H   XDATA    WORD      uart5_rx_count
      010062ACH   CODE     ---       UART5_RX_ISR_PC
      010062ABH   CODE     ---       UART5_TX_ISR_PC
      00000016H   DATA     WORD      Uart5RxCt
      0200881CH   XDATA    BYTE      urtc_hourcnt
      02008525H   XDATA    WORD      Valve_Config_Flag
      0200880EH   XDATA    WORD      VCNL4200_ALS_Result
      0100169DH   CODE     ---       VCNL4200_Init
      0200880CH   XDATA    WORD      VCNL4200_PROX_Result
      02008810H   XDATA    ---       VCNL4200_Register
      00000008H   DATA     WORD      Wait_Count
      010038BAH   CODE     ---       Warning_Event_Handler
      020087D7H   XDATA    WORD      Warning_Val
*SFR* 00000090H.3 DATA     BIT       Water_Valve
      0200859FH   XDATA    WORD      Water_Valve_Status
      020086B3H   XDATA    WORD      Wind_Set_Flag
      00000020H   DATA     WORD      Wind_Speed
      020086B5H   XDATA    WORD      Wind_Speed_Config_Flag
      01003498H   CODE     ---       Wind_Speed_Control_Handler
      0200876DH   XDATA    WORD      Wind_Speed_Mode_Config_Flag
      00000022H   DATA     WORD      Wind_Speed_Old
      0200876FH   XDATA    WORD      Wind_Speed_Old_Val
      00000024H   DATA     WORD      Wind_Speed_Val
      01004C59H   CODE     ---       Wind_Speed_Val_Handler
      01001627H   CONST    ---       write_flash
      01002810H   CODE     ---       Write_Nor_Flash
      0200857CH   XDATA    WORD      year_real
      020085CCH   XDATA    BYTE      yearH
      020084EFH   XDATA    BYTE      yearL
      02008763H   XDATA    ---       yuyin_state



SYMBOL TABLE OF MODULE:  .\obj\T5L51 (MAIN)

      VALUE       REP       CLASS    TYPE      SYMBOL NAME
      ====================================================
      ---         MODULE    ---      ---       MAIN
      0200881FH   PUBLIC    XDATA    ---       ProxResult
      0100163EH   PUBLIC    CONST    ---       test
      0100165AH   PUBLIC    CODE     ---       main
      000000F1H   SFRSYM    DATA     BYTE      ADR_H
      00000080H   SFRSYM    DATA     BYTE      P0
      00000090H   SFRSYM    DATA     BYTE      P1
      000000A0H   SFRSYM    DATA     BYTE      P2
      000000B0H   SFRSYM    DATA     BYTE      P3
      000000F3H   SFRSYM    DATA     BYTE      ADR_L
      000000D0H.6 SFRSYM    DATA     BIT       AC
LX51 LINKER/LOCATER V4.58                                                             08/27/2019  16:41:25  PAGE 24


      00000094H   SFRSYM    DATA     BYTE      PAGESEL
      000000F2H   SFRSYM    DATA     BYTE      ADR_M
      000000A8H.7 SFRSYM    DATA     BIT       EA
      000000F8H   SFRSYM    DATA     BYTE      RAMMODE
      000000B7H   SFRSYM    DATA     BYTE      P0MDOUT
      000000BCH   SFRSYM    DATA     BYTE      P1MDOUT
      000000A8H   SFRSYM    DATA     BYTE      IEN0
      000000BDH   SFRSYM    DATA     BYTE      P2MDOUT
      000000B8H   SFRSYM    DATA     BYTE      IEN1
      000000BEH   SFRSYM    DATA     BYTE      P3MDOUT
      0000009AH   SFRSYM    DATA     BYTE      IEN2
      000000F8H.4 SFRSYM    DATA     BIT       APP_ACK
      000000A0H.1 SFRSYM    DATA     BIT       P2_1
      000000F4H   SFRSYM    DATA     BYTE      ADR_INC
      000000B8H.1 SFRSYM    DATA     BIT       ECAN
      00000090H.4 SFRSYM    DATA     BIT       Medium_Speed_Valve
      000000D0H.7 SFRSYM    DATA     BIT       CY
      000000B8H.3 SFRSYM    DATA     BIT       ES2R
      000000B8H.5 SFRSYM    DATA     BIT       ES3R
      000000B8H.2 SFRSYM    DATA     BIT       ES2T
      000000B8H.4 SFRSYM    DATA     BIT       ES3T
      00000081H   SFRSYM    DATA     BYTE      SP
      000000D0H.2 SFRSYM    DATA     BIT       OV
      00000095H   SFRSYM    DATA     BYTE      D_PAGESEL
      000000F8H.7 SFRSYM    DATA     BIT       APP_REQ
      000000BFH   SFRSYM    DATA     BYTE      IRCON2
      000000BAH   SFRSYM    DATA     BYTE      SREL0H
      000000BBH   SFRSYM    DATA     BYTE      SREL1H
      00000087H   SFRSYM    DATA     BYTE      PCON
      00000090H.6 SFRSYM    DATA     BIT       I2C_INT_PORT
      000000F9H   SFRSYM    DATA     BYTE      PORTDRV
      000000AAH   SFRSYM    DATA     BYTE      SREL0L
      0000009DH   SFRSYM    DATA     BYTE      SREL1L
      00000089H   SFRSYM    DATA     BYTE      TMOD
      00000088H   SFRSYM    DATA     BYTE      TCON
      00000090H.2 SFRSYM    DATA     BIT       High_Speed_Valve
      000000FFH   SFRSYM    DATA     BYTE      EXDATA
      00000097H   SFRSYM    DATA     BYTE      SCON2R
      000000ABH   SFRSYM    DATA     BYTE      SCON3R
      000000D9H   SFRSYM    DATA     BYTE      BODE2_DIV_H
      00000090H.5 SFRSYM    DATA     BIT       I2C_SDADATA_PORT
      000000AEH   SFRSYM    DATA     BYTE      BODE3_DIV_H
      00000096H   SFRSYM    DATA     BYTE      SCON2T
      000000A7H   SFRSYM    DATA     BYTE      SCON3T
      000000E7H   SFRSYM    DATA     BYTE      BODE2_DIV_L
      00000088H.1 SFRSYM    DATA     BIT       IE0
      000000AFH   SFRSYM    DATA     BYTE      BODE3_DIV_L
      00000088H.3 SFRSYM    DATA     BIT       IE1
      000000C9H   SFRSYM    DATA     BYTE      MUX_SEL
      000000F0H   SFRSYM    DATA     BYTE      B
      00000090H.7 SFRSYM    DATA     BIT       I2C_SCLDATA_PORT
      000000E0H   SFRSYM    DATA     BYTE      ACC
      00000080H.1 SFRSYM    DATA     BIT       RS485_TX_EN
      0000008FH   SFRSYM    DATA     BYTE      CAN_CR
      000000A8H.4 SFRSYM    DATA     BIT       ES0
      000000A9H   SFRSYM    DATA     BYTE      IP0
      000000A8H.1 SFRSYM    DATA     BIT       ET0
      000000B9H   SFRSYM    DATA     BYTE      IP1
      000000A8H.3 SFRSYM    DATA     BIT       ET1
      00000088H.5 SFRSYM    DATA     BIT       TF0
      000000FDH   SFRSYM    DATA     BYTE      DATA0
      000000A8H.5 SFRSYM    DATA     BIT       ET2
      00000098H   SFRSYM    DATA     BIT       RI0
      00000088H.7 SFRSYM    DATA     BIT       TF1
      000000E8H   SFRSYM    DATA     BYTE      CAN_ET
LX51 LINKER/LOCATER V4.58                                                             08/27/2019  16:41:25  PAGE 25


      000000FCH   SFRSYM    DATA     BYTE      DATA1
      000000C0H.6 SFRSYM    DATA     BIT       TF2
      0000008CH   SFRSYM    DATA     BYTE      TH0
      000000FBH   SFRSYM    DATA     BYTE      DATA2
      000000A8H   SFRSYM    DATA     BIT       EX0
      00000098H.1 SFRSYM    DATA     BIT       TI0
      0000008DH   SFRSYM    DATA     BYTE      TH1
      00000088H   SFRSYM    DATA     BIT       IT0
      00000091H   SFRSYM    DATA     BYTE      CAN_IR
      000000FAH   SFRSYM    DATA     BYTE      DATA3
      000000CDH   SFRSYM    DATA     BYTE      TH2
      000000A8H.2 SFRSYM    DATA     BIT       EX1
      00000088H.2 SFRSYM    DATA     BIT       IT1
      000000D0H   SFRSYM    DATA     BIT       P
      000000A0H.2 SFRSYM    DATA     BIT       KEY1_Vin_F
      0000008AH   SFRSYM    DATA     BYTE      TL0
      0000008BH   SFRSYM    DATA     BYTE      TL1
      000000CCH   SFRSYM    DATA     BYTE      TL2
      000000F8H.6 SFRSYM    DATA     BIT       APP_EN
      000000D0H.3 SFRSYM    DATA     BIT       RS0
      000000D0H.4 SFRSYM    DATA     BIT       RS1
      00000088H.4 SFRSYM    DATA     BIT       TR0
      00000093H   SFRSYM    DATA     BYTE      DPC
      00000088H.6 SFRSYM    DATA     BIT       TR1
      000000E5H   SFRSYM    DATA     BYTE      MAC_MODE
      000000C8H   SFRSYM    DATA     BIT       TR2
      00000083H   SFRSYM    DATA     BYTE      DPH
      00000082H   SFRSYM    DATA     BYTE      DPL
      00000099H   SFRSYM    DATA     BYTE      SBUF0
      0000009CH   SFRSYM    DATA     BYTE      SBUF1
      00000098H   SFRSYM    DATA     BYTE      SCON0
      0000009BH   SFRSYM    DATA     BYTE      SCON1
      000000B0H.3 SFRSYM    DATA     BIT       RTC_SDADATA_PORT
      000000D8H   SFRSYM    DATA     BYTE      ADCON
      00000090H.3 SFRSYM    DATA     BIT       Water_Valve
      000000C8H   SFRSYM    DATA     BYTE      T2CON
      00000090H.1 SFRSYM    DATA     BIT       Low_Speed_Valve
      000000E6H   SFRSYM    DATA     BYTE      DIV_MODE
      000000F8H.5 SFRSYM    DATA     BIT       APP_RW
      000000CBH   SFRSYM    DATA     BYTE      TRL2H
      0000009FH   SFRSYM    DATA     BYTE      SBUF2_RX
      000000ADH   SFRSYM    DATA     BYTE      SBUF3_RX
      0000008EH   SFRSYM    DATA     BYTE      CKCON
      000000B0H.2 SFRSYM    DATA     BIT       RTC_SCLDATA_PORT
      0000009EH   SFRSYM    DATA     BYTE      SBUF2_TX
      000000ACH   SFRSYM    DATA     BYTE      SBUF3_TX
      000000CAH   SFRSYM    DATA     BYTE      TRL2L
      000000FEH   SFRSYM    DATA     BYTE      EXADR
      000000D0H.5 SFRSYM    DATA     BIT       F0
      000000D0H.1 SFRSYM    DATA     BIT       F1
      000000D0H   SFRSYM    DATA     BYTE      PSW
      000000C0H   SFRSYM    DATA     BYTE      IRCON

      0100165AH   BLOCK     CODE     ---       LVL=0
      0100165AH   LINE      ---      ---       #31
      0100165AH   LINE      ---      ---       #32
      0100165AH   LINE      ---      ---       #34
      0100165CH   LINE      ---      ---       #35
      0100165FH   LINE      ---      ---       #36
      01001661H   LINE      ---      ---       #37
      01001664H   LINE      ---      ---       #38
      01001667H   LINE      ---      ---       #39
      0100166AH   LINE      ---      ---       #41
      0100166DH   LINE      ---      ---       #42
      01001670H   LINE      ---      ---       #43
LX51 LINKER/LOCATER V4.58                                                             08/27/2019  16:41:25  PAGE 26


      01001673H   LINE      ---      ---       #45
      0100167EH   LINE      ---      ---       #46
      01001681H   LINE      ---      ---       #47
      01001683H   LINE      ---      ---       #50
      01001683H   LINE      ---      ---       #51
      01001683H   LINE      ---      ---       #52
      01001686H   LINE      ---      ---       #53
      01001689H   LINE      ---      ---       #54
      0100168CH   LINE      ---      ---       #56
      0100168FH   LINE      ---      ---       #57
      01001692H   LINE      ---      ---       #58
      0100169BH   LINE      ---      ---       #68
      ---         BLOCKEND  ---      ---       LVL=0

      ---         MODULE    ---      ---       SYS
      020085D0H   PUBLIC    XDATA    WORD      Temperatrue_Real_Old
      020085CFH   PUBLIC    XDATA    BYTE      Shut_Dwon_Flag
      020085CDH   PUBLIC    XDATA    WORD      Temperature_Real
      020085CCH   PUBLIC    XDATA    BYTE      yearH
      020085C8H   PUBLIC    XDATA    ---       Alarm_Key
      020085C6H   PUBLIC    XDATA    WORD      R2_Temperature
      020085C4H   PUBLIC    XDATA    WORD      R1_Temperature
      020085BEH   PUBLIC    XDATA    ---       Temp_Coef
      020085BAH   PUBLIC    XDATA    ---       led_on
      020085B8H   PUBLIC    XDATA    WORD      AD_Count
      020085B7H   PUBLIC    XDATA    BYTE      Power_Flag
      020085B5H   PUBLIC    XDATA    WORD      Timer_Status
      020085B3H   PUBLIC    XDATA    WORD      Sleep_Count
      020085ABH   PUBLIC    XDATA    ---       time_calibra
      00000018H   PUBLIC    DATA     WORD      led_new
      020085A9H   PUBLIC    XDATA    WORD      Sleep_Flag
      020085A7H   PUBLIC    XDATA    WORD      Alarm_Status
      020085A3H   PUBLIC    XDATA    DWORD     Password
      00000016H   PUBLIC    DATA     WORD      Uart5RxCt
      020085A1H   PUBLIC    XDATA    WORD      led_old
      00000014H   PUBLIC    DATA     WORD      Uart4RxCt
      00000012H   PUBLIC    DATA     WORD      Uart3RxCt
      00000010H   PUBLIC    DATA     WORD      Uart2RxCt
      0200859FH   PUBLIC    XDATA    WORD      Water_Valve_Status
      0200859DH   PUBLIC    XDATA    WORD      Message_Val
      0200858DH   PUBLIC    XDATA    ---       adc_val
      02008589H   PUBLIC    XDATA    ---       page_set
      02008587H   PUBLIC    XDATA    WORD      led_icon
      02008586H   PUBLIC    XDATA    BYTE      Screen_Flag
      02008584H   PUBLIC    XDATA    WORD      Speed_Valve_Status
      0200857EH   PUBLIC    XDATA    ---       Screen_Saver_Parm
      0200857CH   PUBLIC    XDATA    WORD      year_real
      02008574H   PUBLIC    XDATA    ---       real_time
      02008573H   PUBLIC    XDATA    BYTE      Close_Valve_Flag
      02008571H   PUBLIC    XDATA    WORD      M4G6_ct
      02008569H   PUBLIC    XDATA    ---       alarm_val
      02008567H   PUBLIC    XDATA    WORD      PageNow
      02008565H   PUBLIC    XDATA    WORD      Alarm_Select
      02008563H   PUBLIC    XDATA    WORD      Magic_Number
      02008561H   PUBLIC    XDATA    WORD      sleep_time
      0200855FH   PUBLIC    XDATA    WORD      Parm_Change_Count_Val
      0200855DH   PUBLIC    XDATA    WORD      Page_Change_Val
      0200855BH   PUBLIC    XDATA    WORD      Temp_time
      02008555H   PUBLIC    XDATA    ---       adc_value
      02008553H   PUBLIC    XDATA    WORD      Temperature_Set_Val
      02008551H   PUBLIC    XDATA    WORD      Parm_Change_Count
      0200854FH   PUBLIC    XDATA    WORD      Temperature_Precision
      0200853BH   PUBLIC    XDATA    ---       Page_Change
      02008539H   PUBLIC    XDATA    WORD      Temp_Pre
      02008537H   PUBLIC    XDATA    WORD      Remote_Update_Status
LX51 LINKER/LOCATER V4.58                                                             08/27/2019  16:41:25  PAGE 27


      0200852FH   PUBLIC    XDATA    ---       read_flash_status
      02008527H   PUBLIC    XDATA    ---       TP_Status_New
      02008525H   PUBLIC    XDATA    WORD      Valve_Config_Flag
      0000000AH   PUBLIC    DATA     WORD      Key_Count
      02008523H   PUBLIC    XDATA    WORD      Sleep_Count_M
      02008521H   PUBLIC    XDATA    WORD      Key_Status
      0200851FH   PUBLIC    XDATA    WORD      screen_count
      02008517H   PUBLIC    XDATA    ---       TP_Status_Old
      02008515H   PUBLIC    XDATA    WORD      Real_Hour_Min
      02008507H   PUBLIC    XDATA    ---       time_display
      02008505H   PUBLIC    XDATA    WORD      ALS_Function
      02008503H   PUBLIC    XDATA    WORD      Key_Value
      02008501H   PUBLIC    XDATA    WORD      Temp_Freq
      020084FFH   PUBLIC    XDATA    WORD      Temperature_Upper
      020084FDH   PUBLIC    XDATA    WORD      R2_value
      00000008H   PUBLIC    DATA     WORD      Wait_Count
      020084FBH   PUBLIC    XDATA    WORD      R1_value
      020084F9H   PUBLIC    XDATA    WORD      Temperature_Lower
      020084F7H   PUBLIC    XDATA    WORD      Sleep_Type
      020084F6H   PUBLIC    XDATA    BYTE      Sleep_Val
      020084F4H   PUBLIC    XDATA    WORD      TC_Status_Old
      020084F2H   PUBLIC    XDATA    WORD      Second_Updata_Flag
      020084F0H   PUBLIC    XDATA    WORD      TC_Status
      020084EFH   PUBLIC    XDATA    BYTE      yearL
      0100163AH   PUBLIC    CONST    ---       page_set_to_0
      01001636H   PUBLIC    CONST    ---       led_off
      01001631H   PUBLIC    CONST    ---       Soft_Ver
      0100162FH   PUBLIC    CONST    WORD      Soft_Ver_Num
      01001627H   PUBLIC    CONST    ---       write_flash
      0100161FH   PUBLIC    CONST    ---       read_flash
      01001613H   PUBLIC    CONST    ---       mon_table
      0100160DH   PUBLIC    CONST    ---       time_set_init
      01001601H   PUBLIC    CONST    ---       table_week
      01001539H   PUBLIC    CONST    ---       TabNTC2_10k
      01001471H   PUBLIC    CONST    ---       TabNTC_10k
      01004988H   PUBLIC    CODE     ---       T2_ISR_PC
      01001FD5H   PUBLIC    CODE     ---       _delay_ms
      01004894H   PUBLIC    CODE     ---       T1_ISR_PC
      010047EAH   PUBLIC    CODE     ---       _RTC_Get_Week
      01004133H   PUBLIC    CODE     ---       _Is_Leap_Year
      0100407EH   PUBLIC    CODE     ---       T0_ISR_PC
      010036FAH   PUBLIC    CODE     ---       Alarm_Handler
      01003A6CH   PUBLIC    CODE     ---       _Get_Temperature
      020085DCH   PUBLIC    XDATA    BYTE      ?_FindTab?BYTE
      01003E0AH   PUBLIC    CODE     ---       _FindTab
      01003F64H   PUBLIC    CODE     ---       _Get_R_Value
      01003A19H   PUBLIC    CODE     ---       Get_ADC_Value
      0200869EH   PUBLIC    XDATA    BYTE      ?_write_dgus_vp?BYTE
      0100220AH   PUBLIC    CODE     ---       _write_dgus_vp
      0200869EH   PUBLIC    XDATA    BYTE      ?_read_dgus_vp?BYTE
      01001C79H   PUBLIC    CODE     ---       _read_dgus_vp
      01003A03H   PUBLIC    CODE     ---       T2_Init
      010039F3H   PUBLIC    CODE     ---       T1_Init
      010039E3H   PUBLIC    CODE     ---       T0_Init
      01002423H   PUBLIC    CODE     ---       Parm_Reset_Init
      010035F7H   PUBLIC    CODE     ---       Brightness_Handler
      01003921H   PUBLIC    CODE     ---       _Screen_Saver_Handler
      01003881H   PUBLIC    CODE     ---       _Page_Change_Handler
      010038BAH   PUBLIC    CODE     ---       Warning_Event_Handler
      010037DAH   PUBLIC    CODE     ---       Parm_Set_Error_Handler
      01003098H   PUBLIC    CODE     ---       Sleep_Handler
      01003678H   PUBLIC    CODE     ---       Close_Valve
      01002EEAH   PUBLIC    CODE     ---       Boot_Handler
      01003789H   PUBLIC    CODE     ---       Standby_Handler
      01003060H   PUBLIC    CODE     ---       Enter_Main_Page
LX51 LINKER/LOCATER V4.58                                                             08/27/2019  16:41:25  PAGE 28


      01002FDEH   PUBLIC    CODE     ---       Key_Scheduling_Event_Handler
      0100271AH   PUBLIC    CODE     ---       Key_Handler
      01002E96H   PUBLIC    CODE     ---       Save_Data_Handler
      01002810H   PUBLIC    CODE     ---       Write_Nor_Flash
      01002196H   PUBLIC    CODE     ---       Read_Nor_Flash
      01001872H   PUBLIC    CODE     ---       System_Parm_Init
      01001868H   PUBLIC    CODE     ---       PORT_Init
      010017F3H   PUBLIC    CODE     ---       INIT_CPU
      000000F1H   SFRSYM    DATA     BYTE      ADR_H
      00000080H   SFRSYM    DATA     BYTE      P0
      00000090H   SFRSYM    DATA     BYTE      P1
      000000A0H   SFRSYM    DATA     BYTE      P2
      000000B0H   SFRSYM    DATA     BYTE      P3
      000000F3H   SFRSYM    DATA     BYTE      ADR_L
      000000D0H.6 SFRSYM    DATA     BIT       AC
      00000094H   SFRSYM    DATA     BYTE      PAGESEL
      000000F2H   SFRSYM    DATA     BYTE      ADR_M
      000000A8H.7 SFRSYM    DATA     BIT       EA
      000000F8H   SFRSYM    DATA     BYTE      RAMMODE
      000000B7H   SFRSYM    DATA     BYTE      P0MDOUT
      000000BCH   SFRSYM    DATA     BYTE      P1MDOUT
      000000A8H   SFRSYM    DATA     BYTE      IEN0
      000000BDH   SFRSYM    DATA     BYTE      P2MDOUT
      000000B8H   SFRSYM    DATA     BYTE      IEN1
      000000BEH   SFRSYM    DATA     BYTE      P3MDOUT
      0000009AH   SFRSYM    DATA     BYTE      IEN2
      000000F8H.4 SFRSYM    DATA     BIT       APP_ACK
      000000A0H.1 SFRSYM    DATA     BIT       P2_1
      000000F4H   SFRSYM    DATA     BYTE      ADR_INC
      000000B8H.1 SFRSYM    DATA     BIT       ECAN
      00000090H.4 SFRSYM    DATA     BIT       Medium_Speed_Valve
      000000D0H.7 SFRSYM    DATA     BIT       CY
      000000B8H.3 SFRSYM    DATA     BIT       ES2R
      000000B8H.5 SFRSYM    DATA     BIT       ES3R
      000000B8H.2 SFRSYM    DATA     BIT       ES2T
      000000B8H.4 SFRSYM    DATA     BIT       ES3T
      00000081H   SFRSYM    DATA     BYTE      SP
      000000D0H.2 SFRSYM    DATA     BIT       OV
      00000095H   SFRSYM    DATA     BYTE      D_PAGESEL
      000000F8H.7 SFRSYM    DATA     BIT       APP_REQ
      000000BFH   SFRSYM    DATA     BYTE      IRCON2
      000000BAH   SFRSYM    DATA     BYTE      SREL0H
      000000BBH   SFRSYM    DATA     BYTE      SREL1H
      00000087H   SFRSYM    DATA     BYTE      PCON
      000000F9H   SFRSYM    DATA     BYTE      PORTDRV
      000000AAH   SFRSYM    DATA     BYTE      SREL0L
      0000009DH   SFRSYM    DATA     BYTE      SREL1L
      00000089H   SFRSYM    DATA     BYTE      TMOD
      00000088H   SFRSYM    DATA     BYTE      TCON
      00000090H.2 SFRSYM    DATA     BIT       High_Speed_Valve
      000000FFH   SFRSYM    DATA     BYTE      EXDATA
      00000097H   SFRSYM    DATA     BYTE      SCON2R
      000000ABH   SFRSYM    DATA     BYTE      SCON3R
      000000D9H   SFRSYM    DATA     BYTE      BODE2_DIV_H
      000000AEH   SFRSYM    DATA     BYTE      BODE3_DIV_H
      00000096H   SFRSYM    DATA     BYTE      SCON2T
      000000A7H   SFRSYM    DATA     BYTE      SCON3T
      000000E7H   SFRSYM    DATA     BYTE      BODE2_DIV_L
      00000088H.1 SFRSYM    DATA     BIT       IE0
      000000AFH   SFRSYM    DATA     BYTE      BODE3_DIV_L
      00000088H.3 SFRSYM    DATA     BIT       IE1
      000000C9H   SFRSYM    DATA     BYTE      MUX_SEL
      000000F0H   SFRSYM    DATA     BYTE      B
      000000E0H   SFRSYM    DATA     BYTE      ACC
      00000080H.1 SFRSYM    DATA     BIT       RS485_TX_EN
LX51 LINKER/LOCATER V4.58                                                             08/27/2019  16:41:25  PAGE 29


      0000008FH   SFRSYM    DATA     BYTE      CAN_CR
      000000A8H.4 SFRSYM    DATA     BIT       ES0
      000000A9H   SFRSYM    DATA     BYTE      IP0
      000000A8H.1 SFRSYM    DATA     BIT       ET0
      000000B9H   SFRSYM    DATA     BYTE      IP1
      000000A8H.3 SFRSYM    DATA     BIT       ET1
      00000088H.5 SFRSYM    DATA     BIT       TF0
      000000FDH   SFRSYM    DATA     BYTE      DATA0
      000000A8H.5 SFRSYM    DATA     BIT       ET2
      00000098H   SFRSYM    DATA     BIT       RI0
      00000088H.7 SFRSYM    DATA     BIT       TF1
      000000E8H   SFRSYM    DATA     BYTE      CAN_ET
      000000FCH   SFRSYM    DATA     BYTE      DATA1
      000000C0H.6 SFRSYM    DATA     BIT       TF2
      0000008CH   SFRSYM    DATA     BYTE      TH0
      000000FBH   SFRSYM    DATA     BYTE      DATA2
      000000A8H   SFRSYM    DATA     BIT       EX0
      00000098H.1 SFRSYM    DATA     BIT       TI0
      0000008DH   SFRSYM    DATA     BYTE      TH1
      00000088H   SFRSYM    DATA     BIT       IT0
      00000091H   SFRSYM    DATA     BYTE      CAN_IR
      000000FAH   SFRSYM    DATA     BYTE      DATA3
      000000CDH   SFRSYM    DATA     BYTE      TH2
      000000A8H.2 SFRSYM    DATA     BIT       EX1
      00000088H.2 SFRSYM    DATA     BIT       IT1
      000000D0H   SFRSYM    DATA     BIT       P
      000000A0H.2 SFRSYM    DATA     BIT       KEY1_Vin_F
      0000008AH   SFRSYM    DATA     BYTE      TL0
      0000008BH   SFRSYM    DATA     BYTE      TL1
      000000CCH   SFRSYM    DATA     BYTE      TL2
      000000F8H.6 SFRSYM    DATA     BIT       APP_EN
      000000D0H.3 SFRSYM    DATA     BIT       RS0
      000000D0H.4 SFRSYM    DATA     BIT       RS1
      00000088H.4 SFRSYM    DATA     BIT       TR0
      00000093H   SFRSYM    DATA     BYTE      DPC
      00000088H.6 SFRSYM    DATA     BIT       TR1
      000000E5H   SFRSYM    DATA     BYTE      MAC_MODE
      000000C8H   SFRSYM    DATA     BIT       TR2
      00000083H   SFRSYM    DATA     BYTE      DPH
      00000082H   SFRSYM    DATA     BYTE      DPL
      00000099H   SFRSYM    DATA     BYTE      SBUF0
      0000009CH   SFRSYM    DATA     BYTE      SBUF1
      00000098H   SFRSYM    DATA     BYTE      SCON0
      0000009BH   SFRSYM    DATA     BYTE      SCON1
      000000B0H.3 SFRSYM    DATA     BIT       RTC_SDADATA_PORT
      000000D8H   SFRSYM    DATA     BYTE      ADCON
      00000090H.3 SFRSYM    DATA     BIT       Water_Valve
      000000C8H   SFRSYM    DATA     BYTE      T2CON
      00000090H.1 SFRSYM    DATA     BIT       Low_Speed_Valve
      000000E6H   SFRSYM    DATA     BYTE      DIV_MODE
      000000F8H.5 SFRSYM    DATA     BIT       APP_RW
      000000CBH   SFRSYM    DATA     BYTE      TRL2H
      0000009FH   SFRSYM    DATA     BYTE      SBUF2_RX
      000000ADH   SFRSYM    DATA     BYTE      SBUF3_RX
      0000008EH   SFRSYM    DATA     BYTE      CKCON
      000000B0H.2 SFRSYM    DATA     BIT       RTC_SCLDATA_PORT
      0000009EH   SFRSYM    DATA     BYTE      SBUF2_TX
      000000ACH   SFRSYM    DATA     BYTE      SBUF3_TX
      000000CAH   SFRSYM    DATA     BYTE      TRL2L
      000000FEH   SFRSYM    DATA     BYTE      EXADR
      000000D0H.5 SFRSYM    DATA     BIT       F0
      000000D0H.1 SFRSYM    DATA     BIT       F1
      000000D0H   SFRSYM    DATA     BYTE      PSW
      000000C0H   SFRSYM    DATA     BYTE      IRCON
      0000000CH   SYMBOL    DATA     WORD      SysTick_RTC
LX51 LINKER/LOCATER V4.58                                                             08/27/2019  16:41:25  PAGE 30


      0000000EH   SYMBOL    DATA     WORD      SysTick

      010017F3H   BLOCK     CODE     ---       LVL=0
      010017F3H   LINE      ---      ---       #205
      010017F3H   LINE      ---      ---       #206
      010017F3H   LINE      ---      ---       #207
      010017F5H   LINE      ---      ---       #208
      010017F7H   LINE      ---      ---       #209
      010017F9H   LINE      ---      ---       #216
      010017FCH   LINE      ---      ---       #217
      010017FFH   LINE      ---      ---       #218
      01001802H   LINE      ---      ---       #219
      01001804H   LINE      ---      ---       #220
      01001806H   LINE      ---      ---       #221
      01001808H   LINE      ---      ---       #222
      0100180AH   LINE      ---      ---       #223
      0100180CH   LINE      ---      ---       #225
      0100180FH   LINE      ---      ---       #228
      01001811H   LINE      ---      ---       #229
      01001813H   LINE      ---      ---       #230
      01001815H   LINE      ---      ---       #231
      01001817H   LINE      ---      ---       #232
      0100181AH   LINE      ---      ---       #233
      0100181CH   LINE      ---      ---       #234
      0100181EH   LINE      ---      ---       #235
      01001820H   LINE      ---      ---       #238
      01001823H   LINE      ---      ---       #239
      01001826H   LINE      ---      ---       #240
      01001829H   LINE      ---      ---       #241
      0100182CH   LINE      ---      ---       #244
      0100182FH   LINE      ---      ---       #247
      01001832H   LINE      ---      ---       #248
      01001835H   LINE      ---      ---       #251
      01001838H   LINE      ---      ---       #252
      0100183BH   LINE      ---      ---       #253
      0100183DH   LINE      ---      ---       #254
      01001840H   LINE      ---      ---       #257
      01001843H   LINE      ---      ---       #258
      01001846H   LINE      ---      ---       #259
      01001848H   LINE      ---      ---       #260
      0100184BH   LINE      ---      ---       #263
      0100184EH   LINE      ---      ---       #265
      01001850H   LINE      ---      ---       #266
      01001852H   LINE      ---      ---       #267
      01001854H   LINE      ---      ---       #270
      01001856H   LINE      ---      ---       #271
      01001858H   LINE      ---      ---       #272
      0100185AH   LINE      ---      ---       #276
      0100185DH   LINE      ---      ---       #277
      0100185FH   LINE      ---      ---       #278
      01001861H   LINE      ---      ---       #279
      01001864H   LINE      ---      ---       #280
      01001867H   LINE      ---      ---       #281
      ---         BLOCKEND  ---      ---       LVL=0

      01001868H   BLOCK     CODE     ---       LVL=0
      01001868H   LINE      ---      ---       #293
      01001868H   LINE      ---      ---       #294
      01001868H   LINE      ---      ---       #295
      0100186BH   LINE      ---      ---       #296
      0100186EH   LINE      ---      ---       #297
      01001871H   LINE      ---      ---       #298
      ---         BLOCKEND  ---      ---       LVL=0

      01001872H   BLOCK     CODE     ---       LVL=0
LX51 LINKER/LOCATER V4.58                                                             08/27/2019  16:41:25  PAGE 31


      01001872H   LINE      ---      ---       #334
      01001872H   LINE      ---      ---       #335
      01001872H   LINE      ---      ---       #336
      01001875H   LINE      ---      ---       #337
      0100187BH   LINE      ---      ---       #338
      0100188FH   LINE      ---      ---       #339
      0100189DH   LINE      ---      ---       #340
      0100189DH   LINE      ---      ---       #341
      010018A7H   LINE      ---      ---       #342
      010018BCH   LINE      ---      ---       #343
      010018BFH   LINE      ---      ---       #344
      010018C2H   LINE      ---      ---       #345
      010018C8H   LINE      ---      ---       #346
      010018C8H   LINE      ---      ---       #347
      010018DEH   LINE      ---      ---       #348
      010018E6H   LINE      ---      ---       #349
      010018FAH   LINE      ---      ---       #350
      01001901H   LINE      ---      ---       #351
      01001915H   LINE      ---      ---       #352
      0100192AH   LINE      ---      ---       #353
      01001943H   LINE      ---      ---       #354
      01001943H   LINE      ---      ---       #355
      0100194DH   LINE      ---      ---       #356
      0100194DH   LINE      ---      ---       #357
      01001961H   LINE      ---      ---       #358
      01001975H   LINE      ---      ---       #359
      0100198FH   LINE      ---      ---       #360
      010019A2H   LINE      ---      ---       #361
      010019B7H   LINE      ---      ---       #362
      010019CBH   LINE      ---      ---       #363
      010019DCH   LINE      ---      ---       #364
      010019DCH   LINE      ---      ---       #365
      010019E4H   LINE      ---      ---       #366
      010019E4H   LINE      ---      ---       #367
      010019EFH   LINE      ---      ---       #368
      010019EFH   LINE      ---      ---       #369
      010019F7H   LINE      ---      ---       #370
      010019F9H   LINE      ---      ---       #371
      010019FFH   LINE      ---      ---       #372
      010019FFH   LINE      ---      ---       #373
      01001A07H   LINE      ---      ---       #374
      01001A07H   LINE      ---      ---       #375
      01001A1BH   LINE      ---      ---       #376
      01001A2FH   LINE      ---      ---       #377
      01001A4CH   LINE      ---      ---       #378
      01001A4CH   LINE      ---      ---       #379
      01001A56H   LINE      ---      ---       #380
      01001A5FH   LINE      ---      ---       #381
      01001A5FH   LINE      ---      ---       #382
      01001A74H   LINE      ---      ---       #383
      01001AA5H   LINE      ---      ---       #384
      01001AA5H   LINE      ---      ---       #385
      01001AAEH   LINE      ---      ---       #386
      01001AB3H   LINE      ---      ---       #387
      01001ABBH   LINE      ---      ---       #388
      01001ABBH   LINE      ---      ---       #389
      01001AD0H   LINE      ---      ---       #390
      01001AE5H   LINE      ---      ---       #391
      01001AF9H   LINE      ---      ---       #392
      01001B01H   LINE      ---      ---       #393
      01001B16H   LINE      ---      ---       #394
      01001B2AH   LINE      ---      ---       #395
      01001B3FH   LINE      ---      ---       #396
      01001B44H   LINE      ---      ---       #397
      01001B58H   LINE      ---      ---       #398
LX51 LINKER/LOCATER V4.58                                                             08/27/2019  16:41:25  PAGE 32


      01001B6DH   LINE      ---      ---       #399
      01001B73H   LINE      ---      ---       #400
      01001B87H   LINE      ---      ---       #401
      01001B9CH   LINE      ---      ---       #402
      01001BA2H   LINE      ---      ---       #403
      01001BA5H   LINE      ---      ---       #405
      01001BACH   LINE      ---      ---       #406
      01001BB2H   LINE      ---      ---       #407
      01001BB8H   LINE      ---      ---       #408
      01001BBCH   LINE      ---      ---       #409
      01001BC0H   LINE      ---      ---       #410
      01001BC8H   LINE      ---      ---       #411
      01001BD1H   LINE      ---      ---       #412
      01001BDAH   LINE      ---      ---       #413
      01001BE4H   LINE      ---      ---       #414
      01001BF9H   LINE      ---      ---       #415
      01001C08H   LINE      ---      ---       #416
      01001C1CH   LINE      ---      ---       #417
      01001C28H   LINE      ---      ---       #418
      01001C28H   LINE      ---      ---       #419
      01001C2BH   LINE      ---      ---       #420
      01001C2BH   LINE      ---      ---       #422
      01001C33H   LINE      ---      ---       #423
      ---         BLOCKEND  ---      ---       LVL=0

      01002196H   BLOCK     CODE     ---       LVL=0
      01002196H   LINE      ---      ---       #441
      01002196H   LINE      ---      ---       #442
      01002196H   LINE      ---      ---       #443
      010021A9H   LINE      ---      ---       #445
      010021A9H   LINE      ---      ---       #446
      010021B0H   LINE      ---      ---       #447
      010021C6H   LINE      ---      ---       #448
      010021CCH   LINE      ---      ---       #449
      ---         BLOCKEND  ---      ---       LVL=0

      01002810H   BLOCK     CODE     ---       LVL=0
      01002810H   LINE      ---      ---       #462
      01002810H   LINE      ---      ---       #463
      01002810H   LINE      ---      ---       #464
      01002824H   LINE      ---      ---       #466
      01002824H   LINE      ---      ---       #467
      0100282BH   LINE      ---      ---       #468
      01002841H   LINE      ---      ---       #469
      01002847H   LINE      ---      ---       #470
      ---         BLOCKEND  ---      ---       LVL=0

      01002E96H   BLOCK     CODE     ---       LVL=0
      01002E96H   LINE      ---      ---       #483
      01002E96H   LINE      ---      ---       #484
      01002E96H   LINE      ---      ---       #485
      01002E9EH   LINE      ---      ---       #486
      01002E9EH   LINE      ---      ---       #487
      01002EA1H   LINE      ---      ---       #488
      01002EA1H   LINE      ---      ---       #489
      01002EB0H   LINE      ---      ---       #490
      01002EB0H   LINE      ---      ---       #491
      01002EBEH   LINE      ---      ---       #492
      01002ECDH   LINE      ---      ---       #493
      01002ECDH   LINE      ---      ---       #494
      01002ECFH   LINE      ---      ---       #495
      01002ED3H   LINE      ---      ---       #496
      01002ED3H   LINE      ---      ---       #497
      01002ED3H   LINE      ---      ---       #498
      01002ED3H   LINE      ---      ---       #499
LX51 LINKER/LOCATER V4.58                                                             08/27/2019  16:41:25  PAGE 33


      01002ED5H   LINE      ---      ---       #501
      01002ED5H   LINE      ---      ---       #502
      01002EDCH   LINE      ---      ---       #503
      01002EE3H   LINE      ---      ---       #504
      01002EE9H   LINE      ---      ---       #505
      01002EE9H   LINE      ---      ---       #506
      01002EE9H   LINE      ---      ---       #507
      ---         BLOCKEND  ---      ---       LVL=0

      0100271AH   BLOCK     CODE     ---       LVL=0
      0100271AH   LINE      ---      ---       #525
      0100271AH   LINE      ---      ---       #526
      0100271AH   LINE      ---      ---       #527
      01002722H   LINE      ---      ---       #528
      01002722H   LINE      ---      ---       #529
      01002725H   LINE      ---      ---       #530
      01002725H   LINE      ---      ---       #531
      0100272BH   LINE      ---      ---       #532
      0100272EH   LINE      ---      ---       #533
      0100272EH   LINE      ---      ---       #534
      01002733H   LINE      ---      ---       #535
      01002733H   LINE      ---      ---       #536
      01002733H   LINE      ---      ---       #537
      01002736H   LINE      ---      ---       #538
      01002736H   LINE      ---      ---       #539
      01002736H   LINE      ---      ---       #540
      01002736H   LINE      ---      ---       #541
      0100273DH   LINE      ---      ---       #542
      0100273FH   LINE      ---      ---       #543
      0100274FH   LINE      ---      ---       #544
      0100274FH   LINE      ---      ---       #545
      01002754H   LINE      ---      ---       #546
      01002756H   LINE      ---      ---       #548
      01002756H   LINE      ---      ---       #549
      0100275BH   LINE      ---      ---       #550
      0100275BH   LINE      ---      ---       #551
      01002763H   LINE      ---      ---       #552
      01002776H   LINE      ---      ---       #553
      0100278AH   LINE      ---      ---       #554
      0100278DH   LINE      ---      ---       #555
      0100278DH   LINE      ---      ---       #556
      0100278DH   LINE      ---      ---       #557
      0100278DH   LINE      ---      ---       #559
      0100278DH   LINE      ---      ---       #560
      01002790H   LINE      ---      ---       #561
      01002790H   LINE      ---      ---       #562
      01002797H   LINE      ---      ---       #563
      0100279AH   LINE      ---      ---       #564
      0100279AH   LINE      ---      ---       #565
      010027A0H   LINE      ---      ---       #566
      010027A0H   LINE      ---      ---       #567
      010027A0H   LINE      ---      ---       #568
      010027A0H   LINE      ---      ---       #569
      ---         BLOCKEND  ---      ---       LVL=0

      01002FDEH   BLOCK     CODE     ---       LVL=0
      01002FDEH   LINE      ---      ---       #581
      01002FDEH   LINE      ---      ---       #582
      01002FDEH   LINE      ---      ---       #583
      01002FF3H   LINE      ---      ---       #584
      01003000H   LINE      ---      ---       #585
      01003000H   LINE      ---      ---       #586
      01003014H   LINE      ---      ---       #587
      01003028H   LINE      ---      ---       #588
      01003028H   LINE      ---      ---       #589
LX51 LINKER/LOCATER V4.58                                                             08/27/2019  16:41:25  PAGE 34


      0100302EH   LINE      ---      ---       #590
      0100302EH   LINE      ---      ---       #591
      01003030H   LINE      ---      ---       #592
      01003044H   LINE      ---      ---       #593
      01003044H   LINE      ---      ---       #594
      0100304AH   LINE      ---      ---       #595
      0100305FH   LINE      ---      ---       #596
      0100305FH   LINE      ---      ---       #597
      0100305FH   LINE      ---      ---       #598
      ---         BLOCKEND  ---      ---       LVL=0

      01003060H   BLOCK     CODE     ---       LVL=0
      01003060H   LINE      ---      ---       #611
      01003060H   LINE      ---      ---       #612
      01003060H   LINE      ---      ---       #623
      01003063H   LINE      ---      ---       #625
      01003078H   LINE      ---      ---       #626
      0100307EH   LINE      ---      ---       #627
      01003092H   LINE      ---      ---       #628
      01003097H   LINE      ---      ---       #629
      ---         BLOCKEND  ---      ---       LVL=0

      01003789H   BLOCK     CODE     ---       LVL=0
      01003789H   LINE      ---      ---       #642
      01003789H   LINE      ---      ---       #643
      01003789H   LINE      ---      ---       #644
      0100379DH   LINE      ---      ---       #645
      010037A3H   LINE      ---      ---       #646
      010037AAH   LINE      ---      ---       #647
      010037B2H   LINE      ---      ---       #648
      010037C1H   LINE      ---      ---       #649
      ---         BLOCKEND  ---      ---       LVL=0

      01002EEAH   BLOCK     CODE     ---       LVL=0
      01002EEAH   LINE      ---      ---       #662
      01002EEAH   LINE      ---      ---       #663
      01002EEAH   LINE      ---      ---       #664
      01002EEDH   LINE      ---      ---       #665
      01002EF4H   LINE      ---      ---       #666
      01002EFAH   LINE      ---      ---       #667
      01002F00H   LINE      ---      ---       #668
      01002F04H   LINE      ---      ---       #669
      01002F0AH   LINE      ---      ---       #670
      01002F10H   LINE      ---      ---       #671
      01002F17H   LINE      ---      ---       #672
      01002F26H   LINE      ---      ---       #673
      ---         BLOCKEND  ---      ---       LVL=0

      01003678H   BLOCK     CODE     ---       LVL=0
      01003678H   LINE      ---      ---       #688
      01003678H   LINE      ---      ---       #689
      01003678H   LINE      ---      ---       #690
      01003680H   LINE      ---      ---       #691
      01003680H   LINE      ---      ---       #692
      0100368CH   LINE      ---      ---       #693
      0100368CH   LINE      ---      ---       #694
      01003690H   LINE      ---      ---       #695
      01003690H   LINE      ---      ---       #696
      0100369BH   LINE      ---      ---       #697
      0100369BH   LINE      ---      ---       #698
      0100369DH   LINE      ---      ---       #699
      0100369FH   LINE      ---      ---       #700
      010036A1H   LINE      ---      ---       #701
      010036A8H   LINE      ---      ---       #702
      010036BCH   LINE      ---      ---       #703
LX51 LINKER/LOCATER V4.58                                                             08/27/2019  16:41:25  PAGE 35


      010036BCH   LINE      ---      ---       #704
      010036C7H   LINE      ---      ---       #705
      010036C7H   LINE      ---      ---       #706
      010036C9H   LINE      ---      ---       #707
      010036D0H   LINE      ---      ---       #708
      010036E4H   LINE      ---      ---       #709
      010036ECH   LINE      ---      ---       #710
      010036ECH   LINE      ---      ---       #711
      010036EDH   LINE      ---      ---       #713
      010036EDH   LINE      ---      ---       #714
      010036F2H   LINE      ---      ---       #715
      010036F9H   LINE      ---      ---       #716
      010036F9H   LINE      ---      ---       #717
      010036F9H   LINE      ---      ---       #718
      010036F9H   LINE      ---      ---       #719
      ---         BLOCKEND  ---      ---       LVL=0

      01003098H   BLOCK     CODE     ---       LVL=0
      01003098H   LINE      ---      ---       #731
      01003098H   LINE      ---      ---       #732
      01003098H   BLOCK     CODE     NEAR LAB  LVL=1
      01003098H   LINE      ---      ---       #733
      01003099H   LINE      ---      ---       #734
      010030AEH   LINE      ---      ---       #735
      010030BDH   LINE      ---      ---       #736
      010030C2H   LINE      ---      ---       #737
      010030C2H   LINE      ---      ---       #738
      010030CEH   LINE      ---      ---       #739
      010030CEH   LINE      ---      ---       #740
      010030E2H   LINE      ---      ---       #741
      010030EEH   LINE      ---      ---       #742
      010030EEH   LINE      ---      ---       #743
      010030F8H   LINE      ---      ---       #744
      010030F8H   LINE      ---      ---       #745
      010030FBH   LINE      ---      ---       #746
      010030FBH   LINE      ---      ---       #747
      010030FBH   LINE      ---      ---       #748
      01003110H   LINE      ---      ---       #749
      0100311CH   LINE      ---      ---       #750
      0100311CH   LINE      ---      ---       #751
      01003133H   LINE      ---      ---       #752
      01003133H   LINE      ---      ---       #753
      01003133H   LINE      ---      ---       #754
      01003133H   LINE      ---      ---       #755
      01003135H   LINE      ---      ---       #756
      01003141H   LINE      ---      ---       #757
      01003141H   LINE      ---      ---       #758
      01003150H   LINE      ---      ---       #759
      01003150H   LINE      ---      ---       #760
      01003158H   LINE      ---      ---       #761
      0100315AH   LINE      ---      ---       #763
      0100315AH   LINE      ---      ---       #764
      01003171H   LINE      ---      ---       #765
      01003171H   LINE      ---      ---       #766
      0100317FH   LINE      ---      ---       #767
      01003186H   LINE      ---      ---       #768
      01003186H   LINE      ---      ---       #769
      01003186H   LINE      ---      ---       #770
      01003186H   LINE      ---      ---       #771
      01003186H   LINE      ---      ---       #772
      01003186H   LINE      ---      ---       #774
      01003186H   LINE      ---      ---       #775
      01003192H   LINE      ---      ---       #776
      01003192H   LINE      ---      ---       #777
      010031A6H   LINE      ---      ---       #778
LX51 LINKER/LOCATER V4.58                                                             08/27/2019  16:41:25  PAGE 36


      010031A9H   LINE      ---      ---       #779
      010031A9H   LINE      ---      ---       #780
      010031A9H   LINE      ---      ---       #781
      010031B7H   LINE      ---      ---       #782
      010031B7H   LINE      ---      ---       #783
      010031C2H   LINE      ---      ---       #784
      010031C2H   LINE      ---      ---       #785
      010031C2H   LINE      ---      ---       #787
      010031C2H   LINE      ---      ---       #788
      010031D7H   LINE      ---      ---       #789
      010031E3H   LINE      ---      ---       #790
      010031E3H   LINE      ---      ---       #791
      010031EDH   LINE      ---      ---       #792
      010031EDH   LINE      ---      ---       #793
      01003200H   LINE      ---      ---       #794
      0100320CH   LINE      ---      ---       #795
      0100320CH   LINE      ---      ---       #796
      0100320EH   LINE      ---      ---       #797
      0100320EH   LINE      ---      ---       #798
      01003215H   LINE      ---      ---       #799
      0100321BH   LINE      ---      ---       #800
      01003221H   LINE      ---      ---       #801
      01003225H   LINE      ---      ---       #802
      01003229H   LINE      ---      ---       #803
      01003230H   LINE      ---      ---       #804
      01003244H   LINE      ---      ---       #805
      01003244H   LINE      ---      ---       #806
      00000007H   SYMBOL    DATA     CHAR      temp
      ---         BLOCKEND  CODE     ---       LVL=1
      ---         BLOCKEND  CODE     ---       LVL=0

      010037DAH   BLOCK     CODE     ---       LVL=0
      010037DAH   LINE      ---      ---       #820
      010037DAH   LINE      ---      ---       #821
      010037DAH   BLOCK     CODE     NEAR LAB  LVL=1
      010037DAH   LINE      ---      ---       #822
      010037DFH   LINE      ---      ---       #823
      010037F3H   LINE      ---      ---       #824
      01003803H   LINE      ---      ---       #825
      01003803H   LINE      ---      ---       #827
      01003829H   LINE      ---      ---       #828
      01003829H   LINE      ---      ---       #829
      01003829H   LINE      ---      ---       #830
      0100382EH   LINE      ---      ---       #831
      01003830H   LINE      ---      ---       #832
      01003830H   LINE      ---      ---       #833
      01003836H   LINE      ---      ---       #834
      01003838H   LINE      ---      ---       #835
      01003838H   LINE      ---      ---       #836
      0100383EH   LINE      ---      ---       #838
      01003840H   LINE      ---      ---       #839
      01003840H   LINE      ---      ---       #840
      01003846H   LINE      ---      ---       #841
      01003848H   LINE      ---      ---       #842
      01003848H   LINE      ---      ---       #843
      0100384EH   LINE      ---      ---       #844
      01003850H   LINE      ---      ---       #845
      01003850H   LINE      ---      ---       #846
      01003856H   LINE      ---      ---       #847
      01003858H   LINE      ---      ---       #848
      01003858H   LINE      ---      ---       #849
      0100385EH   LINE      ---      ---       #850
      0100385EH   LINE      ---      ---       #851
      0100385EH   LINE      ---      ---       #852
      0100385EH   LINE      ---      ---       #853
LX51 LINKER/LOCATER V4.58                                                             08/27/2019  16:41:25  PAGE 37


      0100385EH   LINE      ---      ---       #854
      01003860H   LINE      ---      ---       #855
      01003867H   LINE      ---      ---       #856
      0100387BH   LINE      ---      ---       #857
      0100387BH   LINE      ---      ---       #858
      020085D2H   SYMBOL    XDATA    BYTE      i
      ---         BLOCKEND  CODE     ---       LVL=1
      ---         BLOCKEND  CODE     ---       LVL=0

      010038BAH   BLOCK     CODE     ---       LVL=0
      010038BAH   LINE      ---      ---       #870
      010038BAH   LINE      ---      ---       #871
      010038BAH   BLOCK     CODE     NEAR LAB  LVL=1
      010038BAH   LINE      ---      ---       #872
      010038BFH   LINE      ---      ---       #873
      010038D3H   LINE      ---      ---       #874
      010038E3H   LINE      ---      ---       #875
      010038E3H   LINE      ---      ---       #876
      010038F5H   LINE      ---      ---       #877
      010038F5H   LINE      ---      ---       #878
      010038F5H   LINE      ---      ---       #879
      010038FBH   LINE      ---      ---       #880
      010038FDH   LINE      ---      ---       #881
      010038FDH   LINE      ---      ---       #882
      01003903H   LINE      ---      ---       #883
      01003903H   LINE      ---      ---       #884
      01003903H   LINE      ---      ---       #885
      01003903H   LINE      ---      ---       #886
      01003903H   LINE      ---      ---       #887
      01003905H   LINE      ---      ---       #888
      0100390CH   LINE      ---      ---       #889
      01003920H   LINE      ---      ---       #890
      01003920H   LINE      ---      ---       #891
      020085D2H   SYMBOL    XDATA    BYTE      i
      ---         BLOCKEND  CODE     ---       LVL=1
      ---         BLOCKEND  CODE     ---       LVL=0

      0100387CH   BLOCK     CODE     ---       LVL=0
      01003881H   LINE      ---      ---       #904
      01003881H   LINE      ---      ---       #905
      01003881H   LINE      ---      ---       #906
      01003887H   LINE      ---      ---       #907
      0100388BH   LINE      ---      ---       #908
      0100388EH   LINE      ---      ---       #909
      010038A0H   LINE      ---      ---       #910
      00000007H   SYMBOL    DATA     BYTE      n
      ---         BLOCKEND  ---      ---       LVL=0

      01003921H   BLOCK     CODE     ---       LVL=0
      01003921H   LINE      ---      ---       #926
      01003921H   LINE      ---      ---       #927
      01003921H   LINE      ---      ---       #928
      01003934H   LINE      ---      ---       #929
      01003934H   LINE      ---      ---       #930
      01003934H   LINE      ---      ---       #931
      0100393EH   LINE      ---      ---       #932
      0100393EH   LINE      ---      ---       #934
      0100393EH   LINE      ---      ---       #936
      0100393EH   LINE      ---      ---       #937
      01003944H   LINE      ---      ---       #938
      01003948H   LINE      ---      ---       #939
      0100394BH   LINE      ---      ---       #940
      0100394EH   LINE      ---      ---       #941
      0100394EH   LINE      ---      ---       #942
      0100394EH   LINE      ---      ---       #943
LX51 LINKER/LOCATER V4.58                                                             08/27/2019  16:41:25  PAGE 38


      0100394EH   LINE      ---      ---       #944
      01003950H   LINE      ---      ---       #945
      01003950H   LINE      ---      ---       #946
      0100395AH   LINE      ---      ---       #947
      0100395AH   LINE      ---      ---       #949
      0100395AH   LINE      ---      ---       #951
      0100395AH   LINE      ---      ---       #952
      01003960H   LINE      ---      ---       #953
      01003964H   LINE      ---      ---       #954
      01003967H   LINE      ---      ---       #955
      01003970H   LINE      ---      ---       #956
      01003984H   LINE      ---      ---       #957
      0100398AH   LINE      ---      ---       #958
      01003992H   LINE      ---      ---       #959
      010039AAH   LINE      ---      ---       #960
      010039AAH   LINE      ---      ---       #961
      010039AAH   LINE      ---      ---       #962
      010039AAH   LINE      ---      ---       #963
      010039B2H   LINE      ---      ---       #964
      010039B2H   LINE      ---      ---       #966
      010039B2H   LINE      ---      ---       #968
      010039B2H   LINE      ---      ---       #969
      010039B8H   LINE      ---      ---       #970
      010039BCH   LINE      ---      ---       #971
      010039BFH   LINE      ---      ---       #972
      010039C8H   LINE      ---      ---       #973
      010039DCH   LINE      ---      ---       #974
      010039E2H   LINE      ---      ---       #975
      010039E2H   LINE      ---      ---       #976
      010039E2H   LINE      ---      ---       #977
      010039E2H   LINE      ---      ---       #978
      010039E2H   LINE      ---      ---       #979
      010039E2H   LINE      ---      ---       #980
      00000006H   SYMBOL    DATA     WORD      type
      ---         BLOCKEND  ---      ---       LVL=0

      010035F7H   BLOCK     CODE     ---       LVL=0
      010035F7H   LINE      ---      ---       #999
      010035F7H   LINE      ---      ---       #1000
      010035F7H   LINE      ---      ---       #1001
      0100360CH   LINE      ---      ---       #1002
      0100361AH   LINE      ---      ---       #1003
      0100361AH   LINE      ---      ---       #1004
      01003624H   LINE      ---      ---       #1005
      01003628H   LINE      ---      ---       #1006
      0100363CH   LINE      ---      ---       #1007
      0100363CH   LINE      ---      ---       #1008
      0100364CH   LINE      ---      ---       #1010
      0100364CH   LINE      ---      ---       #1011
      0100365FH   LINE      ---      ---       #1012
      0100365FH   LINE      ---      ---       #1013
      ---         BLOCKEND  ---      ---       LVL=0

      01002423H   BLOCK     CODE     ---       LVL=0
      01002423H   LINE      ---      ---       #1029
      01002423H   LINE      ---      ---       #1030
      01002423H   LINE      ---      ---       #1031
      01002429H   LINE      ---      ---       #1032
      0100243CH   LINE      ---      ---       #1033
      01002442H   LINE      ---      ---       #1034
      01002456H   LINE      ---      ---       #1035
      0100245EH   LINE      ---      ---       #1036
      01002471H   LINE      ---      ---       #1037
      01002478H   LINE      ---      ---       #1038
      0100247CH   LINE      ---      ---       #1039
LX51 LINKER/LOCATER V4.58                                                             08/27/2019  16:41:25  PAGE 39


      01002490H   LINE      ---      ---       #1040
      01002497H   LINE      ---      ---       #1041
      0100249BH   LINE      ---      ---       #1042
      0100249FH   LINE      ---      ---       #1043
      010024B3H   LINE      ---      ---       #1044
      010024BDH   LINE      ---      ---       #1045
      010024D1H   LINE      ---      ---       #1046
      010024D7H   LINE      ---      ---       #1047
      010024EBH   LINE      ---      ---       #1048
      010024F2H   LINE      ---      ---       #1049
      010024F6H   LINE      ---      ---       #1050
      010024FBH   LINE      ---      ---       #1051
      01002501H   LINE      ---      ---       #1052
      01002515H   LINE      ---      ---       #1053
      0100251DH   LINE      ---      ---       #1054
      01002530H   LINE      ---      ---       #1055
      01002538H   LINE      ---      ---       #1056
      0100254BH   LINE      ---      ---       #1057
      0100255AH   LINE      ---      ---       #1058
      01002564H   LINE      ---      ---       #1059
      0100256BH   LINE      ---      ---       #1060
      01002570H   LINE      ---      ---       #1061
      01002577H   LINE      ---      ---       #1062
      0100257EH   LINE      ---      ---       #1063
      01002585H   LINE      ---      ---       #1064
      0100258AH   LINE      ---      ---       #1065
      01002591H   LINE      ---      ---       #1066
      01002598H   LINE      ---      ---       #1067
      0100259FH   LINE      ---      ---       #1068
      010025A4H   LINE      ---      ---       #1069
      010025ABH   LINE      ---      ---       #1070
      010025B2H   LINE      ---      ---       #1071
      010025B9H   LINE      ---      ---       #1072
      010025BEH   LINE      ---      ---       #1073
      010025C5H   LINE      ---      ---       #1074
      010025D9H   LINE      ---      ---       #1075
      010025EEH   LINE      ---      ---       #1076
      010025F8H   LINE      ---      ---       #1077
      010025FFH   LINE      ---      ---       #1078
      01002604H   LINE      ---      ---       #1079
      0100260BH   LINE      ---      ---       #1080
      01002612H   LINE      ---      ---       #1081
      01002619H   LINE      ---      ---       #1082
      0100261EH   LINE      ---      ---       #1083
      01002625H   LINE      ---      ---       #1084
      0100262CH   LINE      ---      ---       #1085
      01002633H   LINE      ---      ---       #1086
      01002638H   LINE      ---      ---       #1087
      0100263FH   LINE      ---      ---       #1088
      01002646H   LINE      ---      ---       #1089
      0100264DH   LINE      ---      ---       #1090
      01002652H   LINE      ---      ---       #1091
      01002659H   LINE      ---      ---       #1092
      0100266DH   LINE      ---      ---       #1093
      01002682H   LINE      ---      ---       #1094
      0100268CH   LINE      ---      ---       #1095
      01002693H   LINE      ---      ---       #1096
      01002698H   LINE      ---      ---       #1097
      0100269FH   LINE      ---      ---       #1098
      010026A6H   LINE      ---      ---       #1099
      010026ADH   LINE      ---      ---       #1100
      010026B2H   LINE      ---      ---       #1101
      010026B9H   LINE      ---      ---       #1102
      010026C0H   LINE      ---      ---       #1103
      010026C7H   LINE      ---      ---       #1104
LX51 LINKER/LOCATER V4.58                                                             08/27/2019  16:41:25  PAGE 40


      010026CCH   LINE      ---      ---       #1105
      010026D3H   LINE      ---      ---       #1106
      010026DAH   LINE      ---      ---       #1107
      010026E1H   LINE      ---      ---       #1108
      010026E6H   LINE      ---      ---       #1109
      010026EDH   LINE      ---      ---       #1110
      01002701H   LINE      ---      ---       #1111
      ---         BLOCKEND  ---      ---       LVL=0

      010039E3H   BLOCK     CODE     ---       LVL=0
      010039E3H   LINE      ---      ---       #1128
      010039E3H   LINE      ---      ---       #1129
      010039E3H   LINE      ---      ---       #1130
      010039E6H   LINE      ---      ---       #1131
      010039E9H   LINE      ---      ---       #1132
      010039ECH   LINE      ---      ---       #1133
      010039EEH   LINE      ---      ---       #1134
      010039F0H   LINE      ---      ---       #1135
      010039F2H   LINE      ---      ---       #1136
      ---         BLOCKEND  ---      ---       LVL=0

      010039F3H   BLOCK     CODE     ---       LVL=0
      010039F3H   LINE      ---      ---       #1149
      010039F3H   LINE      ---      ---       #1150
      010039F3H   LINE      ---      ---       #1151
      010039F6H   LINE      ---      ---       #1152
      010039F9H   LINE      ---      ---       #1153
      010039FCH   LINE      ---      ---       #1154
      010039FEH   LINE      ---      ---       #1155
      01003A00H   LINE      ---      ---       #1156
      01003A02H   LINE      ---      ---       #1157
      ---         BLOCKEND  ---      ---       LVL=0

      01003A03H   BLOCK     CODE     ---       LVL=0
      01003A03H   LINE      ---      ---       #1171
      01003A03H   LINE      ---      ---       #1172
      01003A03H   LINE      ---      ---       #1173
      01003A06H   LINE      ---      ---       #1174
      01003A09H   LINE      ---      ---       #1175
      01003A0BH   LINE      ---      ---       #1176
      01003A0EH   LINE      ---      ---       #1177
      01003A11H   LINE      ---      ---       #1178
      01003A14H   LINE      ---      ---       #1179
      01003A16H   LINE      ---      ---       #1180
      01003A18H   LINE      ---      ---       #1181
      ---         BLOCKEND  ---      ---       LVL=0

      01001C4BH   BLOCK     CODE     ---       LVL=0
      01001C79H   LINE      ---      ---       #1198
      01001C8AH   LINE      ---      ---       #1199
      0200869EH   SYMBOL    XDATA    DWORD     addr
      020086A2H   SYMBOL    XDATA    ---       buf
      020086A5H   SYMBOL    XDATA    WORD      len
      01001C8AH   BLOCK     CODE     NEAR LAB  LVL=1
      01001C8AH   LINE      ---      ---       #1200
      01001C9EH   LINE      ---      ---       #1201
      01001CA9H   LINE      ---      ---       #1202
      01001CC5H   LINE      ---      ---       #1203
      01001CD9H   LINE      ---      ---       #1204
      01001CEFH   LINE      ---      ---       #1205
      01001D05H   LINE      ---      ---       #1206
      01001D0EH   LINE      ---      ---       #1207
      01001D11H   LINE      ---      ---       #1208
      01001D14H   LINE      ---      ---       #1209
      01001D2CH   LINE      ---      ---       #1210
LX51 LINKER/LOCATER V4.58                                                             08/27/2019  16:41:25  PAGE 41


      01001D2CH   LINE      ---      ---       #1211
      01001D2FH   LINE      ---      ---       #1212
      01001D31H   LINE      ---      ---       #1213
      01001D34H   LINE      ---      ---       #1214
      01001D49H   LINE      ---      ---       #1215
      01001D5EH   LINE      ---      ---       #1216
      01001D6CH   LINE      ---      ---       #1217
      01001D76H   LINE      ---      ---       #1218
      01001D76H   LINE      ---      ---       #1219
      01001D8CH   LINE      ---      ---       #1220
      01001D98H   LINE      ---      ---       #1221
      01001D9CH   LINE      ---      ---       #1222
      01001D9CH   LINE      ---      ---       #1223
      01001DAAH   LINE      ---      ---       #1224
      01001DAAH   LINE      ---      ---       #1225
      01001DBAH   LINE      ---      ---       #1226
      01001DBAH   LINE      ---      ---       #1227
      01001DD0H   LINE      ---      ---       #1228
      01001DD0H   LINE      ---      ---       #1229
      01001DD3H   LINE      ---      ---       #1230
      01001DD5H   LINE      ---      ---       #1231
      01001DD8H   LINE      ---      ---       #1232
      01001DEDH   LINE      ---      ---       #1233
      01001E02H   LINE      ---      ---       #1234
      01001E04H   LINE      ---      ---       #1235
      01001E04H   LINE      ---      ---       #1236
      01001E07H   LINE      ---      ---       #1237
      01001E09H   LINE      ---      ---       #1238
      01001E0CH   LINE      ---      ---       #1239
      01001E21H   LINE      ---      ---       #1240
      01001E36H   LINE      ---      ---       #1241
      01001E4BH   LINE      ---      ---       #1242
      01001E60H   LINE      ---      ---       #1243
      01001E62H   LINE      ---      ---       #1244
      01001E65H   LINE      ---      ---       #1246
      020086A7H   SYMBOL    XDATA    DWORD     OS_addr
      020086ABH   SYMBOL    XDATA    DWORD     OS_addr_offset
      020086AFH   SYMBOL    XDATA    WORD      OS_len
      020086B1H   SYMBOL    XDATA    WORD      OS_len_offset
      ---         BLOCKEND  CODE     ---       LVL=1
      ---         BLOCKEND  CODE     ---       LVL=0

      010021CDH   BLOCK     CODE     ---       LVL=0
      0100220AH   LINE      ---      ---       #1261
      0100221BH   LINE      ---      ---       #1262
      0200869EH   SYMBOL    XDATA    DWORD     addr
      020086A2H   SYMBOL    XDATA    ---       buf
      020086A5H   SYMBOL    XDATA    WORD      len
      0100221BH   BLOCK     CODE     NEAR LAB  LVL=1
      0100221BH   LINE      ---      ---       #1263
      0100222FH   LINE      ---      ---       #1264
      0100223AH   LINE      ---      ---       #1265
      0100223CH   LINE      ---      ---       #1266
      01002258H   LINE      ---      ---       #1267
      0100226CH   LINE      ---      ---       #1268
      01002282H   LINE      ---      ---       #1269
      01002298H   LINE      ---      ---       #1270
      010022A1H   LINE      ---      ---       #1271
      010022A4H   LINE      ---      ---       #1272
      010022A7H   LINE      ---      ---       #1273
      010022BFH   LINE      ---      ---       #1274
      010022BFH   LINE      ---      ---       #1275
      010022C1H   LINE      ---      ---       #1276
      010022C4H   LINE      ---      ---       #1277
      010022C7H   LINE      ---      ---       #1278
LX51 LINKER/LOCATER V4.58                                                             08/27/2019  16:41:25  PAGE 42


      010022C9H   LINE      ---      ---       #1279
      010022CCH   LINE      ---      ---       #1280
      010022CFH   LINE      ---      ---       #1281
      010022D2H   LINE      ---      ---       #1282
      010022D5H   LINE      ---      ---       #1283
      010022EAH   LINE      ---      ---       #1284
      010022FFH   LINE      ---      ---       #1285
      01002301H   LINE      ---      ---       #1286
      01002304H   LINE      ---      ---       #1287
      01002312H   LINE      ---      ---       #1288
      0100231CH   LINE      ---      ---       #1289
      0100231CH   LINE      ---      ---       #1290
      01002332H   LINE      ---      ---       #1291
      0100233EH   LINE      ---      ---       #1292
      01002342H   LINE      ---      ---       #1293
      01002342H   LINE      ---      ---       #1294
      01002350H   LINE      ---      ---       #1295
      01002350H   LINE      ---      ---       #1296
      01002360H   LINE      ---      ---       #1297
      01002360H   LINE      ---      ---       #1298
      01002376H   LINE      ---      ---       #1299
      01002376H   LINE      ---      ---       #1300
      01002378H   LINE      ---      ---       #1301
      0100237BH   LINE      ---      ---       #1302
      0100237EH   LINE      ---      ---       #1303
      01002380H   LINE      ---      ---       #1304
      01002383H   LINE      ---      ---       #1305
      01002386H   LINE      ---      ---       #1306
      01002389H   LINE      ---      ---       #1307
      0100238CH   LINE      ---      ---       #1308
      010023A1H   LINE      ---      ---       #1309
      010023B6H   LINE      ---      ---       #1310
      010023B8H   LINE      ---      ---       #1311
      010023BDH   LINE      ---      ---       #1313
      010023BDH   LINE      ---      ---       #1314
      010023C0H   LINE      ---      ---       #1315
      010023D5H   LINE      ---      ---       #1316
      010023EAH   LINE      ---      ---       #1317
      010023FFH   LINE      ---      ---       #1318
      01002414H   LINE      ---      ---       #1319
      01002416H   LINE      ---      ---       #1320
      0100241DH   LINE      ---      ---       #1322
      01002420H   LINE      ---      ---       #1323
      01002422H   LINE      ---      ---       #1325
      020086A7H   SYMBOL    XDATA    DWORD     OS_addr
      020086ABH   SYMBOL    XDATA    DWORD     OS_addr_offset
      020086AFH   SYMBOL    XDATA    WORD      OS_len
      020086B1H   SYMBOL    XDATA    WORD      OS_len_offset
      ---         BLOCKEND  CODE     ---       LVL=1
      ---         BLOCKEND  CODE     ---       LVL=0

      01003A19H   BLOCK     CODE     ---       LVL=0
      01003A19H   LINE      ---      ---       #1341
      01003A19H   LINE      ---      ---       #1342
      01003A19H   BLOCK     CODE     NEAR LAB  LVL=1
      01003A19H   LINE      ---      ---       #1344
      01003A2FH   LINE      ---      ---       #1345
      01003A43H   LINE      ---      ---       #1346
      01003A57H   LINE      ---      ---       #1347
      01003A6BH   LINE      ---      ---       #1348
      020084DBH   SYMBOL    XDATA    ---       temp
      ---         BLOCKEND  CODE     ---       LVL=1
      ---         BLOCKEND  CODE     ---       LVL=0

      01003F64H   BLOCK     CODE     ---       LVL=0
LX51 LINKER/LOCATER V4.58                                                             08/27/2019  16:41:25  PAGE 43


      01003F64H   LINE      ---      ---       #1372
      01003F68H   LINE      ---      ---       #1373
      00000002H   SYMBOL    DATA     WORD      n
      01003F68H   BLOCK     CODE     NEAR LAB  LVL=1
      01003F68H   LINE      ---      ---       #1374
      01003F7CH   LINE      ---      ---       #1375
      01003F93H   LINE      ---      ---       #1376
      01003FAAH   LINE      ---      ---       #1377
      01003FC1H   LINE      ---      ---       #1378
      01003FF7H   LINE      ---      ---       #1379
      01004035H   LINE      ---      ---       #1380
      01004059H   LINE      ---      ---       #1381
      0100407DH   LINE      ---      ---       #1382
      020085DCH   SYMBOL    XDATA    FLOAT     R1_temp
      020085E0H   SYMBOL    XDATA    FLOAT     R2_temp
      ---         BLOCKEND  CODE     ---       LVL=1
      ---         BLOCKEND  CODE     ---       LVL=0

      01003DFCH   BLOCK     CODE     ---       LVL=0
      01003E0AH   LINE      ---      ---       #1395
      01003E18H   LINE      ---      ---       #1396
      020085DCH   SYMBOL    XDATA    ---       pTab
      020085DFH   SYMBOL    XDATA    BYTE      Tablong
      020085E0H   SYMBOL    XDATA    WORD      dat
      01003E18H   BLOCK     CODE     NEAR LAB  LVL=1
      01003E18H   LINE      ---      ---       #1397
      01003E21H   LINE      ---      ---       #1398
      01003E23H   LINE      ---      ---       #1399
      01003E29H   LINE      ---      ---       #1400
      01003E54H   LINE      ---      ---       #1401
      01003E58H   LINE      ---      ---       #1402
      01003E7CH   LINE      ---      ---       #1403
      01003E82H   LINE      ---      ---       #1404
      01003E92H   LINE      ---      ---       #1405
      01003E92H   LINE      ---      ---       #1406
      01003EA1H   LINE      ---      ---       #1407
      01003ED0H   LINE      ---      ---       #1408
      01003ED0H   LINE      ---      ---       #1409
      01003F03H   LINE      ---      ---       #1410
      01003F03H   LINE      ---      ---       #1411
      01003F31H   LINE      ---      ---       #1412
      01003F37H   LINE      ---      ---       #1414
      01003F3BH   LINE      ---      ---       #1415
      01003F4EH   LINE      ---      ---       #1416
      01003F4EH   LINE      ---      ---       #1418
      01003F5BH   LINE      ---      ---       #1419
      01003F5EH   LINE      ---      ---       #1420
      01003F63H   LINE      ---      ---       #1421
      020085E2H   SYMBOL    XDATA    BYTE      st
      020085E3H   SYMBOL    XDATA    BYTE      ed
      020085E4H   SYMBOL    XDATA    BYTE      m
      020085E5H   SYMBOL    XDATA    BYTE      i
      ---         BLOCKEND  CODE     ---       LVL=1
      ---         BLOCKEND  CODE     ---       LVL=0

      01003A6CH   BLOCK     CODE     ---       LVL=0
      01003A6CH   LINE      ---      ---       #1434
      01003A78H   LINE      ---      ---       #1435
      00000002H   SYMBOL    DATA     WORD      tim
      020085D2H   SYMBOL    XDATA    WORD      n
      01003A78H   BLOCK     CODE     NEAR LAB  LVL=1
      01003A78H   LINE      ---      ---       #1437
      01003A8AH   LINE      ---      ---       #1438
      01003A99H   LINE      ---      ---       #1439
      01003A99H   LINE      ---      ---       #1440
LX51 LINKER/LOCATER V4.58                                                             08/27/2019  16:41:25  PAGE 44


      01003A9BH   LINE      ---      ---       #1441
      01003AA9H   LINE      ---      ---       #1442
      01003AC0H   LINE      ---      ---       #1443
      01003AC0H   LINE      ---      ---       #1444
      01003AC2H   LINE      ---      ---       #1445
      01003AD5H   LINE      ---      ---       #1446
      01003AE8H   LINE      ---      ---       #1447
      01003B68H   LINE      ---      ---       #1448
      01003BE8H   LINE      ---      ---       #1449
      01003C35H   LINE      ---      ---       #1450
      01003C82H   LINE      ---      ---       #1451
      01003C97H   LINE      ---      ---       #1452
      01003CACH   LINE      ---      ---       #1453
      01003CEFH   LINE      ---      ---       #1454
      01003D1EH   LINE      ---      ---       #1455
      01003D42H   LINE      ---      ---       #1456
      01003D42H   LINE      ---      ---       #1457
      01003D50H   LINE      ---      ---       #1458
      01003D5FH   LINE      ---      ---       #1459
      01003D5FH   LINE      ---      ---       #1460
      01003D69H   LINE      ---      ---       #1461
      01003D6BH   LINE      ---      ---       #1463
      01003D6BH   LINE      ---      ---       #1464
      01003D72H   LINE      ---      ---       #1465
      01003D81H   LINE      ---      ---       #1466
      01003D81H   LINE      ---      ---       #1467
      01003D83H   LINE      ---      ---       #1468
      01003DB3H   LINE      ---      ---       #1469
      01003DB3H   LINE      ---      ---       #1470
      01003DC2H   LINE      ---      ---       #1471
      01003DC9H   LINE      ---      ---       #1472
      01003DC9H   LINE      ---      ---       #1474
      01003DDEH   LINE      ---      ---       #1475
      01003DEDH   LINE      ---      ---       #1476
      01003DF4H   LINE      ---      ---       #1477
      01003DF4H   LINE      ---      ---       #1478
      01003DFBH   LINE      ---      ---       #1479
      01003DFBH   LINE      ---      ---       #1480
      020084EBH   SYMBOL    XDATA    WORD      i
      020084EDH   SYMBOL    XDATA    WORD      temp_t
      020085D4H   SYMBOL    XDATA    FLOAT     temp1
      020085D8H   SYMBOL    XDATA    FLOAT     temp2
      ---         BLOCKEND  CODE     ---       LVL=1
      ---         BLOCKEND  CODE     ---       LVL=0

      010036FAH   BLOCK     CODE     ---       LVL=0
      010036FAH   LINE      ---      ---       #1501
      010036FAH   LINE      ---      ---       #1502
      010036FAH   LINE      ---      ---       #1503
      01003710H   LINE      ---      ---       #1504
      0100372DH   LINE      ---      ---       #1505
      0100372DH   LINE      ---      ---       #1506
      01003743H   LINE      ---      ---       #1507
      01003758H   LINE      ---      ---       #1508
      01003758H   LINE      ---      ---       #1509
      01003758H   LINE      ---      ---       #1510
      01003758H   LINE      ---      ---       #1511
      01003758H   LINE      ---      ---       #1513
      01003758H   LINE      ---      ---       #1515
      01003758H   LINE      ---      ---       #1517
      01003758H   LINE      ---      ---       #1518
      01003758H   LINE      ---      ---       #1519
      01003758H   LINE      ---      ---       #1520
      01003758H   LINE      ---      ---       #1521
      01003758H   LINE      ---      ---       #1522
LX51 LINKER/LOCATER V4.58                                                             08/27/2019  16:41:25  PAGE 45


      01003758H   LINE      ---      ---       #1524
      01003758H   LINE      ---      ---       #1526
      01003758H   LINE      ---      ---       #1528
      01003758H   LINE      ---      ---       #1529
      01003758H   LINE      ---      ---       #1530
      01003760H   LINE      ---      ---       #1531
      01003769H   LINE      ---      ---       #1532
      0100376BH   LINE      ---      ---       #1534
      0100376BH   LINE      ---      ---       #1535
      01003772H   LINE      ---      ---       #1536
      01003786H   LINE      ---      ---       #1537
      01003786H   LINE      ---      ---       #1538
      01003788H   LINE      ---      ---       #1539
      ---         BLOCKEND  ---      ---       LVL=0

      0100407EH   BLOCK     CODE     ---       LVL=0
      0100409BH   LINE      ---      ---       #1563
      0100409BH   LINE      ---      ---       #1566
      0100409DH   LINE      ---      ---       #1567
      010040A0H   LINE      ---      ---       #1568
      010040A3H   LINE      ---      ---       #1570
      010040ABH   LINE      ---      ---       #1571
      010040BEH   LINE      ---      ---       #1572
      010040BEH   LINE      ---      ---       #1573
      010040C6H   LINE      ---      ---       #1574
      010040C6H   LINE      ---      ---       #1575
      010040D0H   LINE      ---      ---       #1576
      010040D0H   LINE      ---      ---       #1577
      010040DEH   LINE      ---      ---       #1578
      010040DEH   LINE      ---      ---       #1579
      010040ECH   LINE      ---      ---       #1580
      010040FAH   LINE      ---      ---       #1581
      01004108H   LINE      ---      ---       #1582
      01004116H   LINE      ---      ---       #1583
      01004118H   LINE      ---      ---       #1584
      ---         BLOCKEND  ---      ---       LVL=0

      01004133H   BLOCK     CODE     ---       LVL=0
      01004133H   LINE      ---      ---       #1618
      01004137H   LINE      ---      ---       #1619
      01004137H   LINE      ---      ---       #1620
      0100413CH   LINE      ---      ---       #1621
      0100413CH   LINE      ---      ---       #1622
      01004146H   LINE      ---      ---       #1623
      01004146H   LINE      ---      ---       #1624
      01004159H   LINE      ---      ---       #1625
      0100415AH   LINE      ---      ---       #1626
      0100415DH   LINE      ---      ---       #1627
      0100415FH   LINE      ---      ---       #1628
      00000002H   SYMBOL    DATA     WORD      year
      ---         BLOCKEND  ---      ---       LVL=0

      010047EAH   BLOCK     CODE     ---       LVL=0
      010047EAH   LINE      ---      ---       #1632
      010047F2H   LINE      ---      ---       #1633
      00000007H   SYMBOL    DATA     BYTE      year
      020085D6H   SYMBOL    XDATA    BYTE      month
      020085D7H   SYMBOL    XDATA    BYTE      day
      010047F2H   BLOCK     CODE     NEAR LAB  LVL=1
      010047F2H   LINE      ---      ---       #1635
      01004800H   LINE      ---      ---       #1636
      01004817H   LINE      ---      ---       #1637
      01004827H   LINE      ---      ---       #1639
      01004837H   LINE      ---      ---       #1641
      01004847H   LINE      ---      ---       #1642
LX51 LINKER/LOCATER V4.58                                                             08/27/2019  16:41:25  PAGE 46


      01004852H   LINE      ---      ---       #1643
      0100486BH   LINE      ---      ---       #1644
      0100487EH   LINE      ---      ---       #1645
      01004889H   LINE      ---      ---       #1646
      0100488DH   LINE      ---      ---       #1647
      01004890H   LINE      ---      ---       #1649
      01004893H   LINE      ---      ---       #1650
      00000006H   SYMBOL    DATA     WORD      temp
      ---         BLOCKEND  CODE     ---       LVL=1
      ---         BLOCKEND  CODE     ---       LVL=0

      01004894H   BLOCK     CODE     ---       LVL=0
      010048AFH   LINE      ---      ---       #1697
      010048AFH   LINE      ---      ---       #1699
      010048B1H   LINE      ---      ---       #1700
      010048B4H   LINE      ---      ---       #1701
      010048B7H   LINE      ---      ---       #1704
      010048BFH   LINE      ---      ---       #1705
      010048CBH   LINE      ---      ---       #1706
      010048CBH   LINE      ---      ---       #1707
      010048D1H   LINE      ---      ---       #1708
      010048D9H   LINE      ---      ---       #1709
      010048D9H   LINE      ---      ---       #1710
      010048DBH   LINE      ---      ---       #1711
      010048E1H   LINE      ---      ---       #1712
      010048E7H   LINE      ---      ---       #1713
      010048E7H   LINE      ---      ---       #1714
      010048E9H   LINE      ---      ---       #1715
      010048EFH   LINE      ---      ---       #1716
      010048F5H   LINE      ---      ---       #1717
      010048F5H   LINE      ---      ---       #1718
      010048F7H   LINE      ---      ---       #1719
      010048FDH   LINE      ---      ---       #1720
      01004916H   LINE      ---      ---       #1721
      01004916H   LINE      ---      ---       #1722
      01004931H   LINE      ---      ---       #1723
      01004931H   LINE      ---      ---       #1724
      01004931H   LINE      ---      ---       #1725
      01004931H   LINE      ---      ---       #1726
      01004931H   LINE      ---      ---       #1727
      01004933H   LINE      ---      ---       #1729
      01004933H   LINE      ---      ---       #1730
      01004944H   LINE      ---      ---       #1731
      01004944H   LINE      ---      ---       #1732
      01004947H   LINE      ---      ---       #1733
      0100494DH   LINE      ---      ---       #1734
      0100494DH   LINE      ---      ---       #1735
      0100494DH   LINE      ---      ---       #1736
      01004956H   LINE      ---      ---       #1737
      01004956H   LINE      ---      ---       #1738
      01004959H   LINE      ---      ---       #1739
      0100495FH   LINE      ---      ---       #1740
      0100495FH   LINE      ---      ---       #1741
      0100495FH   LINE      ---      ---       #1742
      0100495FH   LINE      ---      ---       #1743
      0100495FH   LINE      ---      ---       #1744
      01004965H   LINE      ---      ---       #1745
      0100496DH   LINE      ---      ---       #1746
      0100496DH   LINE      ---      ---       #1748
      0100496FH   LINE      ---      ---       #1749
      ---         BLOCKEND  ---      ---       LVL=0

      01001FD0H   BLOCK     CODE     ---       LVL=0
      01001FD5H   LINE      ---      ---       #1763
      01001FD5H   LINE      ---      ---       #1764
LX51 LINKER/LOCATER V4.58                                                             08/27/2019  16:41:25  PAGE 47


      01001FD5H   LINE      ---      ---       #1765
      01001FD9H   LINE      ---      ---       #1766
      01001FDFH   LINE      ---      ---       #1767
      00000006H   SYMBOL    DATA     WORD      n
      ---         BLOCKEND  ---      ---       LVL=0

      01004988H   BLOCK     CODE     ---       LVL=0
      0100498EH   LINE      ---      ---       #1779
      0100498EH   LINE      ---      ---       #1781
      01004990H   LINE      ---      ---       #1783
      01004992H   LINE      ---      ---       #1784
      0100499AH   LINE      ---      ---       #1785
      010049A0H   LINE      ---      ---       #1786
      010049A0H   LINE      ---      ---       #1787
      010049A4H   LINE      ---      ---       #1788
      010049A6H   LINE      ---      ---       #1790
      010049A6H   LINE      ---      ---       #1791
      010049AEH   LINE      ---      ---       #1793
      010049AEH   LINE      ---      ---       #1794
      010049B4H   LINE      ---      ---       #1795
      010049B4H   LINE      ---      ---       #1796
      010049B8H   LINE      ---      ---       #1797
      010049BAH   LINE      ---      ---       #1799
      010049BAH   LINE      ---      ---       #1800
      010049C2H   LINE      ---      ---       #1802
      010049C2H   LINE      ---      ---       #1804
      010049CAH   LINE      ---      ---       #1805
      010049D2H   LINE      ---      ---       #1806
      010049D5H   LINE      ---      ---       #1807
      010049D7H   LINE      ---      ---       #1809
      ---         BLOCKEND  ---      ---       LVL=0

      ---         MODULE    ---      ---       CONTROL
      02008773H   PUBLIC    XDATA    ---       timer_trigger_flag
      02008771H   PUBLIC    XDATA    WORD      Mode_Set_Flag
      0200876FH   PUBLIC    XDATA    WORD      Wind_Speed_Old_Val
      00000024H   PUBLIC    DATA     WORD      Wind_Speed_Val
      00000022H   PUBLIC    DATA     WORD      Wind_Speed_Old
      00000020H   PUBLIC    DATA     WORD      Wind_Speed
      0200876DH   PUBLIC    XDATA    WORD      Wind_Speed_Mode_Config_Flag
      0200876BH   PUBLIC    XDATA    WORD      Hour_Min_R
      02008765H   PUBLIC    XDATA    ---       timer_key
      02008763H   PUBLIC    XDATA    ---       yuyin_state
      02008761H   PUBLIC    XDATA    WORD      Set_Temper_Display_Val
      02008737H   PUBLIC    XDATA    ---       timer_week
      02008735H   PUBLIC    XDATA    WORD      Timer_Parm_Read_Flag
      02008733H   PUBLIC    XDATA    WORD      Temper_Display_Val
      02008731H   PUBLIC    XDATA    WORD      movie_icon
      0200872FH   PUBLIC    XDATA    WORD      Set_Temper_Display_Val_Dec
      0200872DH   PUBLIC    XDATA    WORD      Set_Temperature_Val_Old
      0000001EH   PUBLIC    DATA     WORD      Mode_old
      0200872BH   PUBLIC    XDATA    WORD      Temperature_To_Set_Flag
      02008729H   PUBLIC    XDATA    WORD      Temper_Display_Val_Dec
      02008723H   PUBLIC    XDATA    ---       tim_week_c
      02008721H   PUBLIC    XDATA    WORD      Mode_Config_Flag
      0200871FH   PUBLIC    XDATA    WORD      Temperature_Val_Old
      020086BFH   PUBLIC    XDATA    ---       tim_per_val
      020086BDH   PUBLIC    XDATA    WORD      tim_k
      020086BBH   PUBLIC    XDATA    WORD      Mode_Old_Val
      020086B7H   PUBLIC    XDATA    ---       SpeakCmd
      0000001CH   PUBLIC    DATA     WORD      Mode_Val
      0000001AH   PUBLIC    DATA     WORD      Mode
      020086B5H   PUBLIC    XDATA    WORD      Wind_Speed_Config_Flag
      020086B3H   PUBLIC    XDATA    WORD      Wind_Set_Flag
      010012A9H   PUBLIC    CONST    ---       CRCTABL
LX51 LINKER/LOCATER V4.58                                                             08/27/2019  16:41:25  PAGE 48


      010011A9H   PUBLIC    CONST    ---       CRCTABH
      010056CFH   PUBLIC    CODE     ---       _Calculate_CRC16
      0100562EH   PUBLIC    CODE     ---       M4G6_dataRx
      01004F2AH   PUBLIC    CODE     ---       _M4G6_DataDeal
      01004DBAH   PUBLIC    CODE     ---       uart2com
      010032F9H   PUBLIC    CODE     ---       Mode_Wind_Speed_Handler
      010032FDH   PUBLIC    CODE     ---       Mode_Temperature_Handler
      010033F8H   PUBLIC    CODE     ---       Mode_Control_Handler
      01004D1CH   PUBLIC    CODE     ---       Mode_Val_Handler
      01003498H   PUBLIC    CODE     ---       Wind_Speed_Control_Handler
      01004C59H   PUBLIC    CODE     ---       Wind_Speed_Val_Handler
      01003276H   PUBLIC    CODE     ---       TC_Status_Check_Handler
      010049DEH   PUBLIC    CODE     ---       Timer_Config_Handler
      01001E66H   PUBLIC    CODE     ---       Display_Temperature
      01003245H   PUBLIC    CODE     ---       Control_Function
      01003579H   PUBLIC    CODE     ---       ModePage_Set
      000000F1H   SFRSYM    DATA     BYTE      ADR_H
      00000080H   SFRSYM    DATA     BYTE      P0
      00000090H   SFRSYM    DATA     BYTE      P1
      000000A0H   SFRSYM    DATA     BYTE      P2
      000000B0H   SFRSYM    DATA     BYTE      P3
      000000F3H   SFRSYM    DATA     BYTE      ADR_L
      000000D0H.6 SFRSYM    DATA     BIT       AC
      00000094H   SFRSYM    DATA     BYTE      PAGESEL
      000000F2H   SFRSYM    DATA     BYTE      ADR_M
      000000A8H.7 SFRSYM    DATA     BIT       EA
      000000F8H   SFRSYM    DATA     BYTE      RAMMODE
      000000B7H   SFRSYM    DATA     BYTE      P0MDOUT
      000000BCH   SFRSYM    DATA     BYTE      P1MDOUT
      000000A8H   SFRSYM    DATA     BYTE      IEN0
      000000BDH   SFRSYM    DATA     BYTE      P2MDOUT
      000000B8H   SFRSYM    DATA     BYTE      IEN1
      000000BEH   SFRSYM    DATA     BYTE      P3MDOUT
      0000009AH   SFRSYM    DATA     BYTE      IEN2
      000000F8H.4 SFRSYM    DATA     BIT       APP_ACK
      000000A0H.1 SFRSYM    DATA     BIT       P2_1
      000000F4H   SFRSYM    DATA     BYTE      ADR_INC
      000000B8H.1 SFRSYM    DATA     BIT       ECAN
      00000090H.4 SFRSYM    DATA     BIT       Medium_Speed_Valve
      000000D0H.7 SFRSYM    DATA     BIT       CY
      000000B8H.3 SFRSYM    DATA     BIT       ES2R
      000000B8H.5 SFRSYM    DATA     BIT       ES3R
      000000B8H.2 SFRSYM    DATA     BIT       ES2T
      000000B8H.4 SFRSYM    DATA     BIT       ES3T
      00000081H   SFRSYM    DATA     BYTE      SP
      000000D0H.2 SFRSYM    DATA     BIT       OV
      00000095H   SFRSYM    DATA     BYTE      D_PAGESEL
      000000F8H.7 SFRSYM    DATA     BIT       APP_REQ
      000000BFH   SFRSYM    DATA     BYTE      IRCON2
      000000BAH   SFRSYM    DATA     BYTE      SREL0H
      000000BBH   SFRSYM    DATA     BYTE      SREL1H
      00000087H   SFRSYM    DATA     BYTE      PCON
      000000F9H   SFRSYM    DATA     BYTE      PORTDRV
      000000AAH   SFRSYM    DATA     BYTE      SREL0L
      0000009DH   SFRSYM    DATA     BYTE      SREL1L
      00000089H   SFRSYM    DATA     BYTE      TMOD
      00000088H   SFRSYM    DATA     BYTE      TCON
      00000090H.2 SFRSYM    DATA     BIT       High_Speed_Valve
      000000FFH   SFRSYM    DATA     BYTE      EXDATA
      00000097H   SFRSYM    DATA     BYTE      SCON2R
      000000ABH   SFRSYM    DATA     BYTE      SCON3R
      000000D9H   SFRSYM    DATA     BYTE      BODE2_DIV_H
      000000AEH   SFRSYM    DATA     BYTE      BODE3_DIV_H
      00000096H   SFRSYM    DATA     BYTE      SCON2T
      000000A7H   SFRSYM    DATA     BYTE      SCON3T
LX51 LINKER/LOCATER V4.58                                                             08/27/2019  16:41:25  PAGE 49


      000000E7H   SFRSYM    DATA     BYTE      BODE2_DIV_L
      00000088H.1 SFRSYM    DATA     BIT       IE0
      000000AFH   SFRSYM    DATA     BYTE      BODE3_DIV_L
      00000088H.3 SFRSYM    DATA     BIT       IE1
      000000C9H   SFRSYM    DATA     BYTE      MUX_SEL
      000000F0H   SFRSYM    DATA     BYTE      B
      000000E0H   SFRSYM    DATA     BYTE      ACC
      00000080H.1 SFRSYM    DATA     BIT       RS485_TX_EN
      0000008FH   SFRSYM    DATA     BYTE      CAN_CR
      000000A8H.4 SFRSYM    DATA     BIT       ES0
      000000A9H   SFRSYM    DATA     BYTE      IP0
      000000A8H.1 SFRSYM    DATA     BIT       ET0
      000000B9H   SFRSYM    DATA     BYTE      IP1
      000000A8H.3 SFRSYM    DATA     BIT       ET1
      00000088H.5 SFRSYM    DATA     BIT       TF0
      000000FDH   SFRSYM    DATA     BYTE      DATA0
      000000A8H.5 SFRSYM    DATA     BIT       ET2
      00000098H   SFRSYM    DATA     BIT       RI0
      00000088H.7 SFRSYM    DATA     BIT       TF1
      000000E8H   SFRSYM    DATA     BYTE      CAN_ET
      000000FCH   SFRSYM    DATA     BYTE      DATA1
      000000C0H.6 SFRSYM    DATA     BIT       TF2
      0000008CH   SFRSYM    DATA     BYTE      TH0
      000000FBH   SFRSYM    DATA     BYTE      DATA2
      000000A8H   SFRSYM    DATA     BIT       EX0
      00000098H.1 SFRSYM    DATA     BIT       TI0
      0000008DH   SFRSYM    DATA     BYTE      TH1
      00000088H   SFRSYM    DATA     BIT       IT0
      00000091H   SFRSYM    DATA     BYTE      CAN_IR
      000000FAH   SFRSYM    DATA     BYTE      DATA3
      000000CDH   SFRSYM    DATA     BYTE      TH2
      000000A8H.2 SFRSYM    DATA     BIT       EX1
      00000088H.2 SFRSYM    DATA     BIT       IT1
      000000D0H   SFRSYM    DATA     BIT       P
      000000A0H.2 SFRSYM    DATA     BIT       KEY1_Vin_F
      0000008AH   SFRSYM    DATA     BYTE      TL0
      0000008BH   SFRSYM    DATA     BYTE      TL1
      000000CCH   SFRSYM    DATA     BYTE      TL2
      000000F8H.6 SFRSYM    DATA     BIT       APP_EN
      000000D0H.3 SFRSYM    DATA     BIT       RS0
      000000D0H.4 SFRSYM    DATA     BIT       RS1
      00000088H.4 SFRSYM    DATA     BIT       TR0
      00000093H   SFRSYM    DATA     BYTE      DPC
      00000088H.6 SFRSYM    DATA     BIT       TR1
      000000E5H   SFRSYM    DATA     BYTE      MAC_MODE
      000000C8H   SFRSYM    DATA     BIT       TR2
      00000083H   SFRSYM    DATA     BYTE      DPH
      00000082H   SFRSYM    DATA     BYTE      DPL
      00000099H   SFRSYM    DATA     BYTE      SBUF0
      0000009CH   SFRSYM    DATA     BYTE      SBUF1
      00000098H   SFRSYM    DATA     BYTE      SCON0
      0000009BH   SFRSYM    DATA     BYTE      SCON1
      000000D8H   SFRSYM    DATA     BYTE      ADCON
      00000090H.3 SFRSYM    DATA     BIT       Water_Valve
      000000C8H   SFRSYM    DATA     BYTE      T2CON
      00000090H.1 SFRSYM    DATA     BIT       Low_Speed_Valve
      000000E6H   SFRSYM    DATA     BYTE      DIV_MODE
      000000F8H.5 SFRSYM    DATA     BIT       APP_RW
      000000CBH   SFRSYM    DATA     BYTE      TRL2H
      0000009FH   SFRSYM    DATA     BYTE      SBUF2_RX
      000000ADH   SFRSYM    DATA     BYTE      SBUF3_RX
      0000008EH   SFRSYM    DATA     BYTE      CKCON
      0000009EH   SFRSYM    DATA     BYTE      SBUF2_TX
      000000ACH   SFRSYM    DATA     BYTE      SBUF3_TX
      000000CAH   SFRSYM    DATA     BYTE      TRL2L
LX51 LINKER/LOCATER V4.58                                                             08/27/2019  16:41:25  PAGE 50


      000000FEH   SFRSYM    DATA     BYTE      EXADR
      000000D0H.5 SFRSYM    DATA     BIT       F0
      000000D0H.1 SFRSYM    DATA     BIT       F1
      000000D0H   SFRSYM    DATA     BYTE      PSW
      000000C0H   SFRSYM    DATA     BYTE      IRCON
      010013A9H   SYMBOL    CONST    ---       _?ix1000

      01003579H   BLOCK     CODE     ---       LVL=0
      01003579H   LINE      ---      ---       #117
      01003579H   LINE      ---      ---       #118
      01003579H   LINE      ---      ---       #119
      0100358EH   LINE      ---      ---       #120
      010035A3H   LINE      ---      ---       #121
      010035B4H   LINE      ---      ---       #122
      010035B4H   LINE      ---      ---       #123
      010035B4H   LINE      ---      ---       #124
      010035B4H   LINE      ---      ---       #125
      010035C7H   LINE      ---      ---       #126
      010035C7H   LINE      ---      ---       #127
      010035C9H   LINE      ---      ---       #128
      010035C9H   LINE      ---      ---       #129
      010035C9H   LINE      ---      ---       #130
      010035C9H   LINE      ---      ---       #131
      010035C9H   LINE      ---      ---       #132
      010035C9H   LINE      ---      ---       #133
      010035DCH   LINE      ---      ---       #134
      010035DCH   LINE      ---      ---       #135
      010035DEH   LINE      ---      ---       #136
      010035DEH   LINE      ---      ---       #137
      010035DEH   LINE      ---      ---       #138
      010035DEH   LINE      ---      ---       #139
      010035DEH   LINE      ---      ---       #140
      010035DEH   LINE      ---      ---       #141
      010035F1H   LINE      ---      ---       #142
      010035F1H   LINE      ---      ---       #143
      010035F3H   LINE      ---      ---       #144
      010035F3H   LINE      ---      ---       #145
      010035F3H   LINE      ---      ---       #146
      010035F3H   LINE      ---      ---       #147
      010035F6H   LINE      ---      ---       #148
      010035F6H   LINE      ---      ---       #149
      ---         BLOCKEND  ---      ---       LVL=0

      01003245H   BLOCK     CODE     ---       LVL=0
      01003245H   LINE      ---      ---       #161
      01003245H   LINE      ---      ---       #162
      01003245H   LINE      ---      ---       #163
      01003248H   LINE      ---      ---       #164
      0100324BH   LINE      ---      ---       #165
      0100324DH   LINE      ---      ---       #166
      01003260H   LINE      ---      ---       #167
      01003263H   LINE      ---      ---       #168
      0100326AH   LINE      ---      ---       #169
      0100326AH   LINE      ---      ---       #170
      0100326CH   LINE      ---      ---       #171
      0100326EH   LINE      ---      ---       #173
      0100326EH   LINE      ---      ---       #174
      01003270H   LINE      ---      ---       #175
      01003272H   LINE      ---      ---       #176
      01003272H   LINE      ---      ---       #177
      01003274H   LINE      ---      ---       #178
      ---         BLOCKEND  ---      ---       LVL=0

      01001E66H   BLOCK     CODE     ---       LVL=0
      01001E66H   LINE      ---      ---       #198
LX51 LINKER/LOCATER V4.58                                                             08/27/2019  16:41:25  PAGE 51


      01001E66H   LINE      ---      ---       #199
      01001E66H   LINE      ---      ---       #200
      01001E7AH   LINE      ---      ---       #201
      01001E91H   LINE      ---      ---       #202
      01001E91H   LINE      ---      ---       #203
      01001EA1H   LINE      ---      ---       #204
      01001EB0H   LINE      ---      ---       #205
      01001EC3H   LINE      ---      ---       #206
      01001ED8H   LINE      ---      ---       #207
      01001EEDH   LINE      ---      ---       #208
      01001EEDH   LINE      ---      ---       #209
      01001F01H   LINE      ---      ---       #210
      01001F15H   LINE      ---      ---       #211
      01001F15H   LINE      ---      ---       #212
      01001F1DH   LINE      ---      ---       #213
      01001F2CH   LINE      ---      ---       #214
      01001F43H   LINE      ---      ---       #215
      01001F58H   LINE      ---      ---       #216
      01001F6CH   LINE      ---      ---       #217
      01001F6CH   LINE      ---      ---       #218
      ---         BLOCKEND  ---      ---       LVL=0

      010049DEH   BLOCK     CODE     ---       LVL=0
      010049DEH   LINE      ---      ---       #231
      010049DEH   LINE      ---      ---       #232
      010049DEH   BLOCK     CODE     NEAR LAB  LVL=1
      010049DEH   LINE      ---      ---       #233
      010049E3H   LINE      ---      ---       #234
      010049F8H   LINE      ---      ---       #235
      01004A25H   LINE      ---      ---       #236
      01004A25H   LINE      ---      ---       #237
      01004A3EH   LINE      ---      ---       #238
      01004A3EH   LINE      ---      ---       #239
      01004A5AH   LINE      ---      ---       #240
      01004A5AH   LINE      ---      ---       #241
      01004A89H   LINE      ---      ---       #242
      01004A89H   LINE      ---      ---       #243
      01004A9EH   LINE      ---      ---       #244
      01004AAFH   LINE      ---      ---       #245
      01004AAFH   LINE      ---      ---       #246
      01004AEFH   LINE      ---      ---       #247
      01004AF0H   LINE      ---      ---       #249
      01004AF0H   LINE      ---      ---       #251
      01004AF0H   LINE      ---      ---       #252
      01004B22H   LINE      ---      ---       #253
      01004B22H   LINE      ---      ---       #254
      01004B6FH   LINE      ---      ---       #255
      01004B6FH   LINE      ---      ---       #257
      01004B6FH   LINE      ---      ---       #259
      01004B6FH   LINE      ---      ---       #260
      01004B98H   LINE      ---      ---       #261
      01004B98H   LINE      ---      ---       #262
      01004B9BH   LINE      ---      ---       #263
      01004B9DH   LINE      ---      ---       #265
      01004B9DH   LINE      ---      ---       #266
      01004BCCH   LINE      ---      ---       #267
      01004BFCH   LINE      ---      ---       #268
      01004BFCH   LINE      ---      ---       #269
      01004C12H   LINE      ---      ---       #270
      01004C12H   LINE      ---      ---       #271
      01004C12H   LINE      ---      ---       #272
      01004C12H   LINE      ---      ---       #273
      01004C1AH   LINE      ---      ---       #274
      01004C1AH   LINE      ---      ---       #275
      01004C1AH   LINE      ---      ---       #276
LX51 LINKER/LOCATER V4.58                                                             08/27/2019  16:41:25  PAGE 52


      01004C2AH   LINE      ---      ---       #277
      01004C32H   LINE      ---      ---       #278
      01004C3BH   LINE      ---      ---       #279
      01004C3DH   LINE      ---      ---       #281
      01004C3DH   LINE      ---      ---       #282
      01004C44H   LINE      ---      ---       #283
      01004C58H   LINE      ---      ---       #284
      01004C58H   LINE      ---      ---       #286
      020085D2H   SYMBOL    XDATA    BYTE      i
      ---         BLOCKEND  CODE     ---       LVL=1
      ---         BLOCKEND  CODE     ---       LVL=0

      01003276H   BLOCK     CODE     ---       LVL=0
      01003276H   LINE      ---      ---       #298
      01003276H   LINE      ---      ---       #299
      01003276H   LINE      ---      ---       #300
      0100328BH   LINE      ---      ---       #301
      010032A8H   LINE      ---      ---       #302
      010032A8H   LINE      ---      ---       #303
      010032BCH   LINE      ---      ---       #304
      010032C2H   LINE      ---      ---       #305
      010032C9H   LINE      ---      ---       #306
      010032D8H   LINE      ---      ---       #307
      010032D8H   LINE      ---      ---       #308
      010032F5H   LINE      ---      ---       #309
      010032F5H   LINE      ---      ---       #310
      010032F8H   LINE      ---      ---       #311
      010032F8H   LINE      ---      ---       #312
      ---         BLOCKEND  ---      ---       LVL=0

      01004C59H   BLOCK     CODE     ---       LVL=0
      01004C59H   LINE      ---      ---       #324
      01004C59H   LINE      ---      ---       #325
      01004C59H   LINE      ---      ---       #326
      01004C6DH   LINE      ---      ---       #327
      01004C75H   LINE      ---      ---       #328
      01004C75H   LINE      ---      ---       #329
      01004C98H   LINE      ---      ---       #330
      01004C98H   LINE      ---      ---       #331
      01004C9EH   LINE      ---      ---       #332
      01004CA0H   LINE      ---      ---       #333
      01004CC3H   LINE      ---      ---       #334
      01004CC3H   LINE      ---      ---       #335
      01004CC9H   LINE      ---      ---       #336
      01004CCBH   LINE      ---      ---       #338
      01004CCBH   LINE      ---      ---       #339
      01004CD1H   LINE      ---      ---       #340
      01004CD1H   LINE      ---      ---       #341
      01004CD3H   LINE      ---      ---       #343
      01004CD3H   LINE      ---      ---       #344
      01004CD9H   LINE      ---      ---       #345
      01004CD9H   LINE      ---      ---       #346
      01004CE7H   LINE      ---      ---       #347
      01004CE7H   LINE      ---      ---       #348
      01004CFAH   LINE      ---      ---       #349
      01004CFAH   LINE      ---      ---       #351
      01004CFAH   LINE      ---      ---       #353
      01004CFAH   LINE      ---      ---       #354
      01004D02H   LINE      ---      ---       #355
      01004D07H   LINE      ---      ---       #356
      01004D07H   LINE      ---      ---       #357
      01004D08H   LINE      ---      ---       #359
      01004D08H   LINE      ---      ---       #360
      01004D14H   LINE      ---      ---       #361
      01004D14H   LINE      ---      ---       #362
LX51 LINKER/LOCATER V4.58                                                             08/27/2019  16:41:25  PAGE 53


      01004D1BH   LINE      ---      ---       #363
      01004D1BH   LINE      ---      ---       #364
      01004D1BH   LINE      ---      ---       #365
      ---         BLOCKEND  ---      ---       LVL=0

      01003498H   BLOCK     CODE     ---       LVL=0
      01003498H   LINE      ---      ---       #379
      01003498H   LINE      ---      ---       #380
      01003498H   LINE      ---      ---       #381
      010034A4H   LINE      ---      ---       #382
      010034A4H   LINE      ---      ---       #383
      010034A7H   LINE      ---      ---       #384
      010034B1H   LINE      ---      ---       #385
      010034B1H   LINE      ---      ---       #386
      010034BDH   LINE      ---      ---       #387
      010034BDH   LINE      ---      ---       #388
      010034C5H   LINE      ---      ---       #389
      010034C5H   LINE      ---      ---       #390
      010034C7H   LINE      ---      ---       #391
      010034C9H   LINE      ---      ---       #392
      010034CBH   LINE      ---      ---       #393
      010034CDH   LINE      ---      ---       #394
      010034D5H   LINE      ---      ---       #395
      010034D5H   LINE      ---      ---       #396
      010034D7H   LINE      ---      ---       #397
      010034D9H   LINE      ---      ---       #398
      010034DBH   LINE      ---      ---       #399
      010034DDH   LINE      ---      ---       #400
      010034E5H   LINE      ---      ---       #401
      010034E5H   LINE      ---      ---       #402
      010034E7H   LINE      ---      ---       #403
      010034E9H   LINE      ---      ---       #404
      010034EBH   LINE      ---      ---       #405
      010034EBH   LINE      ---      ---       #406
      010034F0H   LINE      ---      ---       #407
      010034F7H   LINE      ---      ---       #408
      010034FFH   LINE      ---      ---       #409
      01003517H   LINE      ---      ---       #410
      01003517H   LINE      ---      ---       #411
      01003517H   LINE      ---      ---       #413
      01003517H   LINE      ---      ---       #414
      01003523H   LINE      ---      ---       #415
      01003523H   LINE      ---      ---       #416
      0100352EH   LINE      ---      ---       #417
      0100352EH   LINE      ---      ---       #418
      01003530H   LINE      ---      ---       #419
      01003532H   LINE      ---      ---       #420
      01003534H   LINE      ---      ---       #421
      0100353DH   LINE      ---      ---       #422
      01003542H   LINE      ---      ---       #423
      0100354CH   LINE      ---      ---       #424
      0100354CH   LINE      ---      ---       #425
      0100354CH   LINE      ---      ---       #426
      01003558H   LINE      ---      ---       #427
      01003558H   LINE      ---      ---       #428
      01003563H   LINE      ---      ---       #429
      01003563H   LINE      ---      ---       #430
      0100356DH   LINE      ---      ---       #431
      01003574H   LINE      ---      ---       #432
      01003578H   LINE      ---      ---       #433
      01003578H   LINE      ---      ---       #434
      01003578H   LINE      ---      ---       #435
      01003578H   LINE      ---      ---       #436
      01003578H   LINE      ---      ---       #437
      ---         BLOCKEND  ---      ---       LVL=0
LX51 LINKER/LOCATER V4.58                                                             08/27/2019  16:41:25  PAGE 54



      01004D1CH   BLOCK     CODE     ---       LVL=0
      01004D1CH   LINE      ---      ---       #449
      01004D1CH   LINE      ---      ---       #450
      01004D1CH   LINE      ---      ---       #451
      01004D31H   LINE      ---      ---       #452
      01004D47H   LINE      ---      ---       #453
      01004D47H   LINE      ---      ---       #454
      01004D4FH   LINE      ---      ---       #455
      01004D4FH   LINE      ---      ---       #456
      01004D54H   LINE      ---      ---       #457
      01004D56H   LINE      ---      ---       #459
      01004D56H   LINE      ---      ---       #460
      01004D5BH   LINE      ---      ---       #461
      01004D5BH   LINE      ---      ---       #462
      01004D69H   LINE      ---      ---       #463
      01004D69H   LINE      ---      ---       #464
      01004D75H   LINE      ---      ---       #465
      01004D75H   LINE      ---      ---       #466
      01004D75H   LINE      ---      ---       #467
      01004D75H   LINE      ---      ---       #468
      01004D75H   LINE      ---      ---       #469
      01004D75H   LINE      ---      ---       #470
      01004D77H   LINE      ---      ---       #471
      01004D7EH   LINE      ---      ---       #472
      01004D7EH   LINE      ---      ---       #473
      01004D86H   LINE      ---      ---       #474
      01004D86H   LINE      ---      ---       #475
      01004D8BH   LINE      ---      ---       #476
      01004D8DH   LINE      ---      ---       #478
      01004D8DH   LINE      ---      ---       #479
      01004D92H   LINE      ---      ---       #480
      01004D92H   LINE      ---      ---       #481
      01004DA0H   LINE      ---      ---       #482
      01004DA0H   LINE      ---      ---       #483
      01004DACH   LINE      ---      ---       #484
      01004DACH   LINE      ---      ---       #485
      01004DB4H   LINE      ---      ---       #486
      01004DB9H   LINE      ---      ---       #487
      01004DB9H   LINE      ---      ---       #488
      01004DB9H   LINE      ---      ---       #489
      01004DB9H   LINE      ---      ---       #490
      ---         BLOCKEND  ---      ---       LVL=0

      010033F8H   BLOCK     CODE     ---       LVL=0
      010033F8H   LINE      ---      ---       #502
      010033F8H   LINE      ---      ---       #503
      010033F8H   LINE      ---      ---       #504
      01003410H   LINE      ---      ---       #505
      01003410H   LINE      ---      ---       #506
      01003413H   LINE      ---      ---       #507
      0100341DH   LINE      ---      ---       #508
      0100341DH   LINE      ---      ---       #509
      01003427H   LINE      ---      ---       #510
      01003427H   LINE      ---      ---       #511
      0100342FH   LINE      ---      ---       #512
      0100342FH   LINE      ---      ---       #513
      01003431H   LINE      ---      ---       #514
      01003438H   LINE      ---      ---       #515
      01003441H   LINE      ---      ---       #516
      01003443H   LINE      ---      ---       #518
      01003443H   LINE      ---      ---       #519
      01003445H   LINE      ---      ---       #520
      0100344CH   LINE      ---      ---       #521
      01003460H   LINE      ---      ---       #522
LX51 LINKER/LOCATER V4.58                                                             08/27/2019  16:41:25  PAGE 55


      01003460H   LINE      ---      ---       #523
      01003468H   LINE      ---      ---       #524
      01003468H   LINE      ---      ---       #525
      01003469H   LINE      ---      ---       #527
      01003469H   LINE      ---      ---       #528
      01003475H   LINE      ---      ---       #529
      01003475H   LINE      ---      ---       #530
      01003480H   LINE      ---      ---       #531
      01003480H   LINE      ---      ---       #532
      01003487H   LINE      ---      ---       #533
      0100348DH   LINE      ---      ---       #534
      01003497H   LINE      ---      ---       #535
      01003497H   LINE      ---      ---       #536
      01003497H   LINE      ---      ---       #537
      01003497H   LINE      ---      ---       #538
      01003497H   LINE      ---      ---       #539
      ---         BLOCKEND  ---      ---       LVL=0

      010032FDH   BLOCK     CODE     ---       LVL=0
      010032FDH   LINE      ---      ---       #552
      010032FDH   LINE      ---      ---       #553
      010032FDH   LINE      ---      ---       #554
      01003315H   LINE      ---      ---       #555
      01003315H   LINE      ---      ---       #556
      0100331FH   LINE      ---      ---       #557
      0100331FH   LINE      ---      ---       #558
      01003327H   LINE      ---      ---       #559
      01003327H   LINE      ---      ---       #560
      0100333EH   LINE      ---      ---       #561
      0100333EH   LINE      ---      ---       #562
      0100333EH   LINE      ---      ---       #563
      0100333EH   LINE      ---      ---       #564
      0100333EH   LINE      ---      ---       #565
      0100333EH   LINE      ---      ---       #566
      0100333EH   LINE      ---      ---       #567
      01003340H   LINE      ---      ---       #568
      0100334AH   LINE      ---      ---       #569
      0100334AH   LINE      ---      ---       #570
      01003361H   LINE      ---      ---       #571
      01003361H   LINE      ---      ---       #572
      01003369H   LINE      ---      ---       #573
      0100336EH   LINE      ---      ---       #574
      01003373H   LINE      ---      ---       #575
      01003377H   LINE      ---      ---       #576
      01003377H   LINE      ---      ---       #577
      01003377H   LINE      ---      ---       #578
      01003379H   LINE      ---      ---       #580
      01003379H   LINE      ---      ---       #581
      01003381H   LINE      ---      ---       #582
      01003381H   LINE      ---      ---       #583
      0100339CH   LINE      ---      ---       #584
      0100339CH   LINE      ---      ---       #585
      010033A3H   LINE      ---      ---       #586
      010033A9H   LINE      ---      ---       #587
      010033ACH   LINE      ---      ---       #588
      010033ACH   LINE      ---      ---       #589
      010033AEH   LINE      ---      ---       #590
      010033B6H   LINE      ---      ---       #591
      010033B6H   LINE      ---      ---       #592
      010033D1H   LINE      ---      ---       #593
      010033D1H   LINE      ---      ---       #594
      010033D8H   LINE      ---      ---       #595
      010033DEH   LINE      ---      ---       #596
      010033E1H   LINE      ---      ---       #597
      010033E1H   LINE      ---      ---       #598
LX51 LINKER/LOCATER V4.58                                                             08/27/2019  16:41:25  PAGE 56


      010033E3H   LINE      ---      ---       #599
      010033EBH   LINE      ---      ---       #600
      010033EBH   LINE      ---      ---       #601
      010033F1H   LINE      ---      ---       #602
      010033F7H   LINE      ---      ---       #603
      010033F7H   LINE      ---      ---       #604
      010033F7H   LINE      ---      ---       #605
      010033F7H   LINE      ---      ---       #606
      ---         BLOCKEND  ---      ---       LVL=0

      010032F9H   BLOCK     CODE     ---       LVL=0
      010032F9H   LINE      ---      ---       #619
      010032F9H   LINE      ---      ---       #620
      010032F9H   LINE      ---      ---       #621
      010032FBH   LINE      ---      ---       #622
      ---         BLOCKEND  ---      ---       LVL=0

      01004DBAH   BLOCK     CODE     ---       LVL=0
      01004DBAH   LINE      ---      ---       #626
      01004DBAH   LINE      ---      ---       #627
      01004DBAH   BLOCK     CODE     NEAR LAB  LVL=1
      01004DBAH   LINE      ---      ---       #629
      01004DCDH   LINE      ---      ---       #630
      01004DD9H   LINE      ---      ---       #631
      01004DD9H   LINE      ---      ---       #632
      01004DE1H   LINE      ---      ---       #633
      01004DE1H   LINE      ---      ---       #634
      01004DE7H   LINE      ---      ---       #635
      01004DF9H   LINE      ---      ---       #636
      01004DF9H   LINE      ---      ---       #637
      01004E01H   LINE      ---      ---       #638
      01004E01H   LINE      ---      ---       #639
      01004E16H   LINE      ---      ---       #640
      01004E3EH   LINE      ---      ---       #641
      01004E44H   LINE      ---      ---       #642
      01004E48H   LINE      ---      ---       #643
      01004E4CH   LINE      ---      ---       #644
      01004E50H   LINE      ---      ---       #645
      01004E5AH   LINE      ---      ---       #646
      01004E5AH   LINE      ---      ---       #647
      01004E62H   LINE      ---      ---       #648
      01004E62H   LINE      ---      ---       #649
      01004E77H   LINE      ---      ---       #650
      01004E9BH   LINE      ---      ---       #651
      01004EA1H   LINE      ---      ---       #652
      01004EA5H   LINE      ---      ---       #653
      01004EB2H   LINE      ---      ---       #654
      01004EB6H   LINE      ---      ---       #655
      01004EBEH   LINE      ---      ---       #656
      01004EC6H   LINE      ---      ---       #657
      01004EC9H   LINE      ---      ---       #658
      01004ED8H   LINE      ---      ---       #659
      01004ED8H   LINE      ---      ---       #660
      01004ED8H   LINE      ---      ---       #661
      01004ED8H   LINE      ---      ---       #662
      01004ED8H   LINE      ---      ---       #663
      020085D2H   SYMBOL    XDATA    DWORD     DGUS_addr
      020085D6H   SYMBOL    XDATA    ---       trans_data
      ---         BLOCKEND  CODE     ---       LVL=1
      ---         BLOCKEND  CODE     ---       LVL=0

      01004F2AH   BLOCK     CODE     ---       LVL=0
      01004F2AH   LINE      ---      ---       #664
      01004F2FH   LINE      ---      ---       #665
      020085D5H   SYMBOL    XDATA    BYTE      dat
LX51 LINKER/LOCATER V4.58                                                             08/27/2019  16:41:25  PAGE 57


      01004F2FH   BLOCK     CODE     NEAR LAB  LVL=1
      01004F2FH   LINE      ---      ---       #667
      01004F35H   LINE      ---      ---       #668
      01004F39H   LINE      ---      ---       #669
      01004F3CH   LINE      ---      ---       #670
      01004F40H   LINE      ---      ---       #671
      01004F4DH   LINE      ---      ---       #674
      01004FAAH   LINE      ---      ---       #675
      01004FAAH   LINE      ---      ---       #676
      01004FAAH   LINE      ---      ---       #677
      01004FAFH   LINE      ---      ---       #683
      01004FAFH   LINE      ---      ---       #684
      01004FAFH   LINE      ---      ---       #685
      01004FB2H   LINE      ---      ---       #686
      01004FB2H   LINE      ---      ---       #687
      01004FB8H   LINE      ---      ---       #688
      01004FBAH   LINE      ---      ---       #689
      01004FBEH   LINE      ---      ---       #690
      01004FC1H   LINE      ---      ---       #691
      01004FCDH   LINE      ---      ---       #694
      01004FCDH   LINE      ---      ---       #695
      01004FE2H   LINE      ---      ---       #696
      01004FE8H   LINE      ---      ---       #697
      01004FEDH   LINE      ---      ---       #698
      01004FF0H   LINE      ---      ---       #700
      01004FF3H   LINE      ---      ---       #701
      01004FF3H   LINE      ---      ---       #702
      01004FF9H   LINE      ---      ---       #703
      01004FFEH   LINE      ---      ---       #706
      01005004H   LINE      ---      ---       #707
      01005009H   LINE      ---      ---       #709
      0100501DH   LINE      ---      ---       #710
      01005021H   LINE      ---      ---       #711
      01005021H   LINE      ---      ---       #712
      01005027H   LINE      ---      ---       #715
      0100502AH   LINE      ---      ---       #716
      0100502AH   LINE      ---      ---       #717
      0100502AH   LINE      ---      ---       #718
      0100502AH   LINE      ---      ---       #719
      0100502AH   LINE      ---      ---       #721
      0100502AH   LINE      ---      ---       #722
      0100502AH   LINE      ---      ---       #723
      0100502AH   LINE      ---      ---       #724
      0100502AH   LINE      ---      ---       #726
      0100502AH   LINE      ---      ---       #727
      0100502CH   LINE      ---      ---       #728
      0100502CH   LINE      ---      ---       #729
      01005034H   LINE      ---      ---       #733
      0100503AH   LINE      ---      ---       #734
      0100504FH   LINE      ---      ---       #735
      01005052H   LINE      ---      ---       #736
      01005053H   LINE      ---      ---       #737
      01005053H   LINE      ---      ---       #738
      01005055H   LINE      ---      ---       #755
      01005055H   LINE      ---      ---       #756
      0100505DH   LINE      ---      ---       #759
      01005063H   LINE      ---      ---       #760
      01005078H   LINE      ---      ---       #761
      0100507BH   LINE      ---      ---       #762
      0100507CH   LINE      ---      ---       #763
      0100507CH   LINE      ---      ---       #764
      0100507EH   LINE      ---      ---       #765
      0100507EH   LINE      ---      ---       #766
      01005086H   LINE      ---      ---       #770
      01005089H   LINE      ---      ---       #771
LX51 LINKER/LOCATER V4.58                                                             08/27/2019  16:41:25  PAGE 58


      0100508AH   LINE      ---      ---       #772
      0100508AH   LINE      ---      ---       #773
      0100508CH   LINE      ---      ---       #774
      0100508CH   LINE      ---      ---       #775
      01005094H   LINE      ---      ---       #778
      0100509CH   LINE      ---      ---       #779
      0100509CH   LINE      ---      ---       #780
      0100509FH   LINE      ---      ---       #781
      010050A1H   LINE      ---      ---       #783
      010050A1H   LINE      ---      ---       #784
      010050A9H   LINE      ---      ---       #785
      010050B2H   LINE      ---      ---       #786
      010050B2H   LINE      ---      ---       #787
      010050B8H   LINE      ---      ---       #788
      010050B8H   LINE      ---      ---       #789
      010050CCH   LINE      ---      ---       #790
      010050CCH   LINE      ---      ---       #791
      010050CEH   LINE      ---      ---       #792
      010050D1H   LINE      ---      ---       #793
      010050D2H   LINE      ---      ---       #794
      010050D2H   LINE      ---      ---       #795
      010050D4H   LINE      ---      ---       #796
      010050D4H   LINE      ---      ---       #797
      010050DCH   LINE      ---      ---       #800
      010050E4H   LINE      ---      ---       #801
      010050E4H   LINE      ---      ---       #802
      010050E9H   LINE      ---      ---       #803
      010050F0H   LINE      ---      ---       #804
      010050F8H   LINE      ---      ---       #805
      01005107H   LINE      ---      ---       #806
      0100511CH   LINE      ---      ---       #807
      0100511EH   LINE      ---      ---       #809
      0100511EH   LINE      ---      ---       #811
      01005120H   LINE      ---      ---       #812
      01005122H   LINE      ---      ---       #813
      01005124H   LINE      ---      ---       #814
      01005139H   LINE      ---      ---       #815
      01005143H   LINE      ---      ---       #816
      01005143H   LINE      ---      ---       #817
      01005145H   LINE      ---      ---       #818
      01005147H   LINE      ---      ---       #819
      01005147H   LINE      ---      ---       #820
      0100514AH   LINE      ---      ---       #821
      0100514AH   LINE      ---      ---       #822
      0100514BH   LINE      ---      ---       #823
      0100514BH   LINE      ---      ---       #824
      0100514DH   LINE      ---      ---       #825
      0100514DH   LINE      ---      ---       #826
      01005155H   LINE      ---      ---       #829
      0100515DH   LINE      ---      ---       #830
      0100515DH   LINE      ---      ---       #831
      01005160H   LINE      ---      ---       #832
      01005162H   LINE      ---      ---       #834
      01005162H   LINE      ---      ---       #835
      0100516AH   LINE      ---      ---       #836
      01005173H   LINE      ---      ---       #837
      01005173H   LINE      ---      ---       #838
      01005179H   LINE      ---      ---       #839
      01005179H   LINE      ---      ---       #840
      0100518DH   LINE      ---      ---       #841
      0100518DH   LINE      ---      ---       #842
      0100518FH   LINE      ---      ---       #843
      01005192H   LINE      ---      ---       #844
      01005193H   LINE      ---      ---       #845
      01005193H   LINE      ---      ---       #846
LX51 LINKER/LOCATER V4.58                                                             08/27/2019  16:41:25  PAGE 59


      01005195H   LINE      ---      ---       #847
      01005195H   LINE      ---      ---       #848
      0100519DH   LINE      ---      ---       #851
      010051A5H   LINE      ---      ---       #852
      010051A5H   LINE      ---      ---       #853
      010051AAH   LINE      ---      ---       #854
      010051B1H   LINE      ---      ---       #855
      010051B9H   LINE      ---      ---       #856
      010051C8H   LINE      ---      ---       #857
      010051DDH   LINE      ---      ---       #858
      010051DFH   LINE      ---      ---       #860
      010051DFH   LINE      ---      ---       #862
      010051E1H   LINE      ---      ---       #863
      010051E3H   LINE      ---      ---       #864
      010051E5H   LINE      ---      ---       #865
      010051FAH   LINE      ---      ---       #866
      01005204H   LINE      ---      ---       #867
      01005204H   LINE      ---      ---       #868
      01005206H   LINE      ---      ---       #869
      01005208H   LINE      ---      ---       #870
      01005208H   LINE      ---      ---       #871
      0100520BH   LINE      ---      ---       #872
      0100520BH   LINE      ---      ---       #873
      0100520CH   LINE      ---      ---       #874
      0100520CH   LINE      ---      ---       #875
      0100520EH   LINE      ---      ---       #876
      0100520EH   LINE      ---      ---       #877
      01005216H   LINE      ---      ---       #880
      01005217H   LINE      ---      ---       #881
      01005217H   LINE      ---      ---       #882
      01005219H   LINE      ---      ---       #883
      01005219H   LINE      ---      ---       #884
      01005221H   LINE      ---      ---       #887
      01005229H   LINE      ---      ---       #888
      0100522EH   LINE      ---      ---       #889
      01005243H   LINE      ---      ---       #890
      01005244H   LINE      ---      ---       #891
      01005244H   LINE      ---      ---       #892
      01005246H   LINE      ---      ---       #893
      01005246H   LINE      ---      ---       #894
      0100524EH   LINE      ---      ---       #897
      01005255H   LINE      ---      ---       #898
      01005259H   LINE      ---      ---       #899
      0100526EH   LINE      ---      ---       #900
      0100526FH   LINE      ---      ---       #901
      0100526FH   LINE      ---      ---       #902
      01005271H   LINE      ---      ---       #903
      01005271H   LINE      ---      ---       #908
      01005277H   LINE      ---      ---       #909
      0100527CH   LINE      ---      ---       #912
      01005281H   LINE      ---      ---       #913
      01005283H   LINE      ---      ---       #914
      0100528AH   LINE      ---      ---       #915
      0100529EH   LINE      ---      ---       #916
      010052A0H   LINE      ---      ---       #917
      010052A0H   LINE      ---      ---       #918
      010052A6H   LINE      ---      ---       #921
      010052ADH   LINE      ---      ---       #922
      010052ADH   LINE      ---      ---       #923
      010052B0H   LINE      ---      ---       #926
      010052B7H   LINE      ---      ---       #928
      010052BFH   LINE      ---      ---       #932
      010052C6H   LINE      ---      ---       #934
      010052CDH   LINE      ---      ---       #935
      010052CDH   LINE      ---      ---       #936
LX51 LINKER/LOCATER V4.58                                                             08/27/2019  16:41:25  PAGE 60


      010052CDH   LINE      ---      ---       #942
      010052CFH   LINE      ---      ---       #943
      010052CFH   LINE      ---      ---       #944
      010052D7H   LINE      ---      ---       #947
      010052DFH   LINE      ---      ---       #948
      010052EAH   LINE      ---      ---       #949
      010052EAH   LINE      ---      ---       #950
      010052F0H   LINE      ---      ---       #951
      010052F0H   LINE      ---      ---       #952
      01005304H   LINE      ---      ---       #953
      01005305H   LINE      ---      ---       #954
      01005305H   LINE      ---      ---       #955
      01005307H   LINE      ---      ---       #956
      01005307H   LINE      ---      ---       #957
      0100530FH   LINE      ---      ---       #960
      01005317H   LINE      ---      ---       #961
      01005320H   LINE      ---      ---       #962
      01005320H   LINE      ---      ---       #963
      01005326H   LINE      ---      ---       #964
      01005326H   LINE      ---      ---       #965
      0100533AH   LINE      ---      ---       #966
      0100533FH   LINE      ---      ---       #967
      01005341H   LINE      ---      ---       #968
      01005343H   LINE      ---      ---       #969
      01005343H   LINE      ---      ---       #970
      01005349H   LINE      ---      ---       #971
      0100534EH   LINE      ---      ---       #974
      01005354H   LINE      ---      ---       #975
      01005358H   LINE      ---      ---       #977
      0100536CH   LINE      ---      ---       #978
      0100536EH   LINE      ---      ---       #979
      0100536EH   LINE      ---      ---       #980
      01005374H   LINE      ---      ---       #983
      01005377H   LINE      ---      ---       #984
      01005377H   LINE      ---      ---       #985
      0100537AH   LINE      ---      ---       #989
      01005381H   LINE      ---      ---       #990
      01005389H   LINE      ---      ---       #994
      01005390H   LINE      ---      ---       #995
      01005392H   LINE      ---      ---       #996
      01005392H   LINE      ---      ---       #997
      01005392H   LINE      ---      ---       #998
      01005392H   LINE      ---      ---       #999
      01005392H   LINE      ---      ---       #1000
      01005392H   LINE      ---      ---       #1001
      01005392H   LINE      ---      ---       #1002
      01005392H   LINE      ---      ---       #1003
      01005392H   LINE      ---      ---       #1004
      01005392H   LINE      ---      ---       #1006
      010053A7H   LINE      ---      ---       #1007
      010053B5H   LINE      ---      ---       #1008
      010053B5H   LINE      ---      ---       #1009
      010053B9H   LINE      ---      ---       #1010
      010053BBH   LINE      ---      ---       #1011
      010053CDH   LINE      ---      ---       #1012
      010053E8H   LINE      ---      ---       #1013
      010053F4H   LINE      ---      ---       #1014
      010053F4H   LINE      ---      ---       #1015
      010053FAH   LINE      ---      ---       #1016
      010053FAH   LINE      ---      ---       #1017
      010053FAH   LINE      ---      ---       #1018
      010053FAH   LINE      ---      ---       #1019
      010053FAH   LINE      ---      ---       #1023
      010053FCH   LINE      ---      ---       #1024
      0100540EH   LINE      ---      ---       #1025
LX51 LINKER/LOCATER V4.58                                                             08/27/2019  16:41:25  PAGE 61


      0100540EH   LINE      ---      ---       #1026
      01005412H   LINE      ---      ---       #1027
      01005414H   LINE      ---      ---       #1028
      01005426H   LINE      ---      ---       #1029
      01005442H   LINE      ---      ---       #1030
      0100544EH   LINE      ---      ---       #1031
      0100544EH   LINE      ---      ---       #1032
      01005454H   LINE      ---      ---       #1033
      01005454H   LINE      ---      ---       #1034
      01005469H   LINE      ---      ---       #1035
      01005480H   LINE      ---      ---       #1036
      01005497H   LINE      ---      ---       #1040
      01005497H   LINE      ---      ---       #1041
      0100549FH   LINE      ---      ---       #1044
      010054A1H   LINE      ---      ---       #1045
      010054A1H   LINE      ---      ---       #1046
      010054A6H   LINE      ---      ---       #1047
      010054A6H   LINE      ---      ---       #1049
      010054BAH   LINE      ---      ---       #1050
      010054C4H   LINE      ---      ---       #1051
      020085D6H   SYMBOL    XDATA    WORD      Ttemp
      020085D8H   SYMBOL    XDATA    WORD      ii
      ---         BLOCKEND  CODE     ---       LVL=1
      ---         BLOCKEND  CODE     ---       LVL=0

      0100562EH   BLOCK     CODE     ---       LVL=0
      0100562EH   LINE      ---      ---       #1052
      0100562EH   LINE      ---      ---       #1053
      0100562EH   BLOCK     CODE     NEAR LAB  LVL=1
      0100562EH   LINE      ---      ---       #1057
      01005634H   LINE      ---      ---       #1058
      01005637H   LINE      ---      ---       #1060
      01005643H   LINE      ---      ---       #1061
      01005643H   LINE      ---      ---       #1063
      0100564BH   LINE      ---      ---       #1064
      0100564BH   LINE      ---      ---       #1065
      01005651H   LINE      ---      ---       #1066
      0100565FH   LINE      ---      ---       #1067
      0100565FH   LINE      ---      ---       #1068
      01005670H   LINE      ---      ---       #1070
      01005676H   LINE      ---      ---       #1071
      0100567BH   LINE      ---      ---       #1072
      0100567DH   LINE      ---      ---       #1074
      010056A4H   LINE      ---      ---       #1075
      010056A4H   LINE      ---      ---       #1076
      010056B9H   LINE      ---      ---       #1077
      010056CEH   LINE      ---      ---       #1079
      010056CEH   LINE      ---      ---       #1080
      010056CEH   LINE      ---      ---       #1081
      010056CEH   LINE      ---      ---       #1083
      010056CEH   LINE      ---      ---       #1084
      020085D2H   SYMBOL    XDATA    ---       rxp
      ---         BLOCKEND  CODE     ---       LVL=1
      ---         BLOCKEND  CODE     ---       LVL=0

      010056CFH   BLOCK     CODE     ---       LVL=0
      010056CFH   LINE      ---      ---       #1085
      010056E0H   LINE      ---      ---       #1086
      020085D5H   SYMBOL    XDATA    ---       Buff
      020085D8H   SYMBOL    XDATA    WORD      len
      010056E0H   BLOCK     CODE     NEAR LAB  LVL=1
      010056E0H   LINE      ---      ---       #1089
      010056E4H   LINE      ---      ---       #1090
      010056E6H   LINE      ---      ---       #1091
      010056F6H   LINE      ---      ---       #1092
LX51 LINKER/LOCATER V4.58                                                             08/27/2019  16:41:25  PAGE 62


      010056F6H   LINE      ---      ---       #1093
      0100570FH   LINE      ---      ---       #1094
      0100571DH   LINE      ---      ---       #1095
      01005726H   LINE      ---      ---       #1096
      0100572DH   LINE      ---      ---       #1097
      01005745H   LINE      ---      ---       #1098
      00000004H   SYMBOL    DATA     WORD      i
      00000007H   SYMBOL    DATA     BYTE      index
      020085DAH   SYMBOL    XDATA    BYTE      crch
      020085DBH   SYMBOL    XDATA    BYTE      crcl
      ---         BLOCKEND  CODE     ---       LVL=1
      ---         BLOCKEND  CODE     ---       LVL=0

      ---         MODULE    ---      ---       CONFIG
      0200880AH   PUBLIC    XDATA    WORD      Alarm_Sel
      02008809H   PUBLIC    XDATA    BYTE      datact
      020087FFH   PUBLIC    XDATA    ---       RTC_Time_Set
      020087FDH   PUBLIC    XDATA    WORD      timer_temperature_set
      020087EDH   PUBLIC    XDATA    ---       timer_period_display
      020087E7H   PUBLIC    XDATA    ---       alarm_set_val
      020087D9H   PUBLIC    XDATA    ---       timer_week_set
      020087D7H   PUBLIC    XDATA    WORD      Warning_Val
      020087C3H   PUBLIC    XDATA    ---       datainput
      020087C1H   PUBLIC    XDATA    WORD      timer_speed_mode_set
      00000037H   PUBLIC    DATA     WORD      Asc_num
      02008799H   PUBLIC    XDATA    ---       input_Ascdata
      00000035H   PUBLIC    DATA     WORD      Touch_Event_Flag
      02008791H   PUBLIC    XDATA    ---       timer_set_period
      0200878FH   PUBLIC    XDATA    WORD      Set_Temperature_Set_Val
      0200878DH   PUBLIC    XDATA    WORD      Hour_Min_Set
      0200878BH   PUBLIC    XDATA    WORD      Message_Status
      02008783H   PUBLIC    XDATA    ---       Alarm_Display
      02008781H   PUBLIC    XDATA    WORD      Set_Temperature_Set_Val_Dec
      0200877DH   PUBLIC    XDATA    DWORD     password_val
      0200877BH   PUBLIC    XDATA    WORD      t_sel
      0200877AH   PUBLIC    XDATA    BYTE      Parm_Change_Flag
      02008778H   PUBLIC    XDATA    WORD      p_sel
      02008776H   PUBLIC    XDATA    WORD      Parm_Set_Error_Val
      0100164BH   PUBLIC    CONST    ---       Parm_Upload_Array
      0100613FH   PUBLIC    CODE     ---       _Asc_Input_Handler
      0100610FH   PUBLIC    CODE     ---       Mode_Add_Set_Handler
      010060DEH   PUBLIC    CODE     ---       Speed_Decrease_Set_Handler
      010060AFH   PUBLIC    CODE     ---       Speed_Add_Set_Handler
      01005610H   PUBLIC    CODE     ---       Speed_High_Set_Handler
      01002FC0H   PUBLIC    CODE     ---       Speed_Medium_Set_Handler
      01002FA2H   PUBLIC    CODE     ---       Speed_Low_Set_Handler
      01002F84H   PUBLIC    CODE     ---       Speed_Auto_Set_Handler
      01002848H   PUBLIC    CODE     ---       Shut_Down_Handler
      01002F66H   PUBLIC    CODE     ---       Message_Handler
      01002F48H   PUBLIC    CODE     ---       Alarm_Set_Cancel_Handler
      01006003H   PUBLIC    CODE     ---       _Alarm_Set_Confirm_Handler
      01005F62H   PUBLIC    CODE     ---       _Alarm_Set_Handler
      01005EF2H   PUBLIC    CODE     ---       Alarm_Set_Init_Handler
      01002F49H   PUBLIC    CODE     ---       Time_Set_Cancel_Handler
      01004160H   PUBLIC    CODE     ---       Time_Set_Confirm_Handler
      01005E83H   PUBLIC    CODE     ---       Time_Set_Init_Handler
      01005569H   PUBLIC    CODE     ---       Tmeperature_Set_Decrease
      010054C5H   PUBLIC    CODE     ---       Temperature_Set_Increase
      01002F47H   PUBLIC    CODE     ---       Temperature_Set_Cancel_Handler
      01002C2DH   PUBLIC    CODE     ---       Temperature_Set_Confirm_Handler
      01005E13H   PUBLIC    CODE     ---       Temperature_Set_Enter_Init_Handler
      01002F46H   PUBLIC    CODE     ---       Timer_Select_Return_Handler
      01002C89H   PUBLIC    CODE     ---       _Save_Week_Handler
      01002F45H   PUBLIC    CODE     ---       Timer_Speed_Mode_Set_Cancel_Handler
      01005CA7H   PUBLIC    CODE     ---       _Timer_Speed_Mode_Set_Confirm_Handler
LX51 LINKER/LOCATER V4.58                                                             08/27/2019  16:41:25  PAGE 63


      01002F44H   PUBLIC    CODE     ---       Timer_Time_Set_Cancel_Handler
      01005A99H   PUBLIC    CODE     ---       _Timer_Time_Set_Confirm_Handler
      01005925H   PUBLIC    CODE     ---       _Timer_Period_Sel_Init_Handler
      010057EFH   PUBLIC    CODE     ---       _Timer_Sel_Init_Handler
      01001F6DH   PUBLIC    CODE     ---       Timer_Week_Display
      01001FE0H   PUBLIC    CODE     ---       _Week_Val
      01002F43H   PUBLIC    CODE     ---       Advance_Set_Rerurn_Handler
      01002F42H   PUBLIC    CODE     ---       Alarm_Select_Return_Handler
      01002F41H   PUBLIC    CODE     ---       System_Set_Return_Handler
      01002F40H   PUBLIC    CODE     ---       Reset_Cancel_Handler
      010027A1H   PUBLIC    CODE     ---       Reset_Confirm_Handler
      010057CBH   PUBLIC    CODE     ---       Password_Input_Cancel_Handler
      01005773H   PUBLIC    CODE     ---       Password_Input_Confirm_Handler
      01002F3FH   PUBLIC    CODE     ---       System_Set_Enter_Handler
      01005751H   PUBLIC    CODE     ---       Shut_Down_Confirm_Handler
      01002E15H   PUBLIC    CODE     ---       Standby_Boot_Handler
      01002F4CH   PUBLIC    CODE     ---       Parm_Upload_Handler
      010027C2H   PUBLIC    CODE     ---       Return_Main_page
      0100284DH   PUBLIC    CODE     ---       Parm_Set_Function
      01002E48H   PUBLIC    CODE     ---       M4G6_Handler
      01002ACDH   PUBLIC    CODE     ---       ASC_Data_Handler
      000000F1H   SFRSYM    DATA     BYTE      ADR_H
      00000080H   SFRSYM    DATA     BYTE      P0
      00000090H   SFRSYM    DATA     BYTE      P1
      000000A0H   SFRSYM    DATA     BYTE      P2
      000000B0H   SFRSYM    DATA     BYTE      P3
      000000F3H   SFRSYM    DATA     BYTE      ADR_L
      000000D0H.6 SFRSYM    DATA     BIT       AC
      00000094H   SFRSYM    DATA     BYTE      PAGESEL
      000000F2H   SFRSYM    DATA     BYTE      ADR_M
      000000A8H.7 SFRSYM    DATA     BIT       EA
      000000F8H   SFRSYM    DATA     BYTE      RAMMODE
      000000B7H   SFRSYM    DATA     BYTE      P0MDOUT
      000000BCH   SFRSYM    DATA     BYTE      P1MDOUT
      000000A8H   SFRSYM    DATA     BYTE      IEN0
      000000BDH   SFRSYM    DATA     BYTE      P2MDOUT
      000000B8H   SFRSYM    DATA     BYTE      IEN1
      000000BEH   SFRSYM    DATA     BYTE      P3MDOUT
      0000009AH   SFRSYM    DATA     BYTE      IEN2
      000000F8H.4 SFRSYM    DATA     BIT       APP_ACK
      000000A0H.1 SFRSYM    DATA     BIT       P2_1
      000000F4H   SFRSYM    DATA     BYTE      ADR_INC
      000000B8H.1 SFRSYM    DATA     BIT       ECAN
      00000090H.4 SFRSYM    DATA     BIT       Medium_Speed_Valve
      000000D0H.7 SFRSYM    DATA     BIT       CY
      000000B8H.3 SFRSYM    DATA     BIT       ES2R
      000000B8H.5 SFRSYM    DATA     BIT       ES3R
      000000B8H.2 SFRSYM    DATA     BIT       ES2T
      000000B8H.4 SFRSYM    DATA     BIT       ES3T
      00000081H   SFRSYM    DATA     BYTE      SP
      000000D0H.2 SFRSYM    DATA     BIT       OV
      00000095H   SFRSYM    DATA     BYTE      D_PAGESEL
      000000F8H.7 SFRSYM    DATA     BIT       APP_REQ
      000000BFH   SFRSYM    DATA     BYTE      IRCON2
      000000BAH   SFRSYM    DATA     BYTE      SREL0H
      000000BBH   SFRSYM    DATA     BYTE      SREL1H
      00000087H   SFRSYM    DATA     BYTE      PCON
      000000F9H   SFRSYM    DATA     BYTE      PORTDRV
      000000AAH   SFRSYM    DATA     BYTE      SREL0L
      0000009DH   SFRSYM    DATA     BYTE      SREL1L
      00000089H   SFRSYM    DATA     BYTE      TMOD
      00000088H   SFRSYM    DATA     BYTE      TCON
      00000090H.2 SFRSYM    DATA     BIT       High_Speed_Valve
      000000FFH   SFRSYM    DATA     BYTE      EXDATA
      00000097H   SFRSYM    DATA     BYTE      SCON2R
LX51 LINKER/LOCATER V4.58                                                             08/27/2019  16:41:25  PAGE 64


      000000ABH   SFRSYM    DATA     BYTE      SCON3R
      000000D9H   SFRSYM    DATA     BYTE      BODE2_DIV_H
      000000AEH   SFRSYM    DATA     BYTE      BODE3_DIV_H
      00000096H   SFRSYM    DATA     BYTE      SCON2T
      000000A7H   SFRSYM    DATA     BYTE      SCON3T
      000000E7H   SFRSYM    DATA     BYTE      BODE2_DIV_L
      00000088H.1 SFRSYM    DATA     BIT       IE0
      000000AFH   SFRSYM    DATA     BYTE      BODE3_DIV_L
      00000088H.3 SFRSYM    DATA     BIT       IE1
      000000C9H   SFRSYM    DATA     BYTE      MUX_SEL
      000000F0H   SFRSYM    DATA     BYTE      B
      000000E0H   SFRSYM    DATA     BYTE      ACC
      0000008FH   SFRSYM    DATA     BYTE      CAN_CR
      000000A8H.4 SFRSYM    DATA     BIT       ES0
      000000A9H   SFRSYM    DATA     BYTE      IP0
      000000A8H.1 SFRSYM    DATA     BIT       ET0
      000000B9H   SFRSYM    DATA     BYTE      IP1
      000000A8H.3 SFRSYM    DATA     BIT       ET1
      00000088H.5 SFRSYM    DATA     BIT       TF0
      000000FDH   SFRSYM    DATA     BYTE      DATA0
      000000A8H.5 SFRSYM    DATA     BIT       ET2
      00000098H   SFRSYM    DATA     BIT       RI0
      00000088H.7 SFRSYM    DATA     BIT       TF1
      000000E8H   SFRSYM    DATA     BYTE      CAN_ET
      000000FCH   SFRSYM    DATA     BYTE      DATA1
      000000C0H.6 SFRSYM    DATA     BIT       TF2
      0000008CH   SFRSYM    DATA     BYTE      TH0
      000000FBH   SFRSYM    DATA     BYTE      DATA2
      000000A8H   SFRSYM    DATA     BIT       EX0
      00000098H.1 SFRSYM    DATA     BIT       TI0
      0000008DH   SFRSYM    DATA     BYTE      TH1
      00000088H   SFRSYM    DATA     BIT       IT0
      00000091H   SFRSYM    DATA     BYTE      CAN_IR
      000000FAH   SFRSYM    DATA     BYTE      DATA3
      000000CDH   SFRSYM    DATA     BYTE      TH2
      000000A8H.2 SFRSYM    DATA     BIT       EX1
      00000088H.2 SFRSYM    DATA     BIT       IT1
      000000D0H   SFRSYM    DATA     BIT       P
      000000A0H.2 SFRSYM    DATA     BIT       KEY1_Vin_F
      0000008AH   SFRSYM    DATA     BYTE      TL0
      0000008BH   SFRSYM    DATA     BYTE      TL1
      000000CCH   SFRSYM    DATA     BYTE      TL2
      000000F8H.6 SFRSYM    DATA     BIT       APP_EN
      000000D0H.3 SFRSYM    DATA     BIT       RS0
      000000D0H.4 SFRSYM    DATA     BIT       RS1
      00000088H.4 SFRSYM    DATA     BIT       TR0
      00000093H   SFRSYM    DATA     BYTE      DPC
      00000088H.6 SFRSYM    DATA     BIT       TR1
      000000E5H   SFRSYM    DATA     BYTE      MAC_MODE
      000000C8H   SFRSYM    DATA     BIT       TR2
      00000083H   SFRSYM    DATA     BYTE      DPH
      00000082H   SFRSYM    DATA     BYTE      DPL
      00000099H   SFRSYM    DATA     BYTE      SBUF0
      0000009CH   SFRSYM    DATA     BYTE      SBUF1
      00000098H   SFRSYM    DATA     BYTE      SCON0
      0000009BH   SFRSYM    DATA     BYTE      SCON1
      000000B0H.3 SFRSYM    DATA     BIT       RTC_SDADATA_PORT
      000000D8H   SFRSYM    DATA     BYTE      ADCON
      00000090H.3 SFRSYM    DATA     BIT       Water_Valve
      000000C8H   SFRSYM    DATA     BYTE      T2CON
      00000090H.1 SFRSYM    DATA     BIT       Low_Speed_Valve
      000000E6H   SFRSYM    DATA     BYTE      DIV_MODE
      000000F8H.5 SFRSYM    DATA     BIT       APP_RW
      000000CBH   SFRSYM    DATA     BYTE      TRL2H
      0000009FH   SFRSYM    DATA     BYTE      SBUF2_RX
LX51 LINKER/LOCATER V4.58                                                             08/27/2019  16:41:25  PAGE 65


      000000ADH   SFRSYM    DATA     BYTE      SBUF3_RX
      0000008EH   SFRSYM    DATA     BYTE      CKCON
      000000B0H.2 SFRSYM    DATA     BIT       RTC_SCLDATA_PORT
      0000009EH   SFRSYM    DATA     BYTE      SBUF2_TX
      000000ACH   SFRSYM    DATA     BYTE      SBUF3_TX
      000000CAH   SFRSYM    DATA     BYTE      TRL2L
      000000FEH   SFRSYM    DATA     BYTE      EXADR
      000000D0H.5 SFRSYM    DATA     BIT       F0
      000000D0H.1 SFRSYM    DATA     BIT       F1
      000000D0H   SFRSYM    DATA     BYTE      PSW
      000000C0H   SFRSYM    DATA     BYTE      IRCON
      01001651H   SYMBOL    CONST    ---       _?ix1000

      01002ACDH   BLOCK     CODE     ---       LVL=0
      01002ACDH   LINE      ---      ---       #72
      01002ACDH   LINE      ---      ---       #73
      01002ACDH   BLOCK     CODE     NEAR LAB  LVL=1
      01002ACDH   LINE      ---      ---       #77
      01002AE2H   LINE      ---      ---       #78
      01002AECH   LINE      ---      ---       #79
      01002AECH   LINE      ---      ---       #80
      01002AEDH   LINE      ---      ---       #81
      01002B01H   LINE      ---      ---       #82
      01002B09H   LINE      ---      ---       #83
      01002B09H   LINE      ---      ---       #84
      01002B11H   LINE      ---      ---       #85
      01002B11H   LINE      ---      ---       #86
      01002B1CH   LINE      ---      ---       #87
      01002B22H   LINE      ---      ---       #88
      01002B22H   LINE      ---      ---       #89
      01002B24H   LINE      ---      ---       #90
      01002B28H   LINE      ---      ---       #91
      01002B28H   LINE      ---      ---       #92
      01002B37H   LINE      ---      ---       #93
      01002B37H   LINE      ---      ---       #94
      01002B43H   LINE      ---      ---       #95
      01002B4BH   LINE      ---      ---       #98
      01002B53H   LINE      ---      ---       #99
      01002B53H   LINE      ---      ---       #100
      01002B59H   LINE      ---      ---       #101
      01002B59H   LINE      ---      ---       #102
      01002B65H   LINE      ---      ---       #103
      01002B65H   LINE      ---      ---       #104
      01002B65H   LINE      ---      ---       #105
      01002B76H   LINE      ---      ---       #106
      01002B78H   LINE      ---      ---       #107
      01002B78H   LINE      ---      ---       #108
      01002B8EH   LINE      ---      ---       #109
      01002B8EH   LINE      ---      ---       #110
      01002B8EH   LINE      ---      ---       #112
      01002B9DH   LINE      ---      ---       #113
      01002B9DH   LINE      ---      ---       #114
      01002BA9H   LINE      ---      ---       #115
      01002BB1H   LINE      ---      ---       #116
      01002BB6H   LINE      ---      ---       #117
      01002BB6H   LINE      ---      ---       #118
      01002BB6H   LINE      ---      ---       #119
      01002BCCH   LINE      ---      ---       #120
      01002BCCH   LINE      ---      ---       #121
      01002BD4H   LINE      ---      ---       #122
      01002BD4H   LINE      ---      ---       #123
      01002BD5H   LINE      ---      ---       #124
      01002BE9H   LINE      ---      ---       #125
      01002BF3H   LINE      ---      ---       #126
      01002BF3H   LINE      ---      ---       #127
LX51 LINKER/LOCATER V4.58                                                             08/27/2019  16:41:25  PAGE 66


      01002C04H   LINE      ---      ---       #128
      01002C10H   LINE      ---      ---       #129
      01002C16H   LINE      ---      ---       #130
      01002C16H   LINE      ---      ---       #131
      01002C2CH   LINE      ---      ---       #132
      01002C2CH   LINE      ---      ---       #135
      020085D2H   SYMBOL    XDATA    ---       input1
      020085D4H   SYMBOL    XDATA    BYTE      i
      ---         BLOCKEND  CODE     ---       LVL=1
      ---         BLOCKEND  CODE     ---       LVL=0

      01002E48H   BLOCK     CODE     ---       LVL=0
      01002E48H   LINE      ---      ---       #136
      01002E48H   LINE      ---      ---       #137
      01002E48H   BLOCK     CODE     NEAR LAB  LVL=1
      01002E48H   LINE      ---      ---       #138
      01002E5BH   LINE      ---      ---       #139
      01002E70H   LINE      ---      ---       #140
      01002E77H   LINE      ---      ---       #141
      01002E77H   LINE      ---      ---       #142
      01002E79H   LINE      ---      ---       #143
      01002E8DH   LINE      ---      ---       #144
      01002E95H   LINE      ---      ---       #146
      01002E95H   LINE      ---      ---       #148
      020085D2H   SYMBOL    XDATA    ---       m4g6data
      ---         BLOCKEND  CODE     ---       LVL=1
      ---         BLOCKEND  CODE     ---       LVL=0

      0100284DH   BLOCK     CODE     ---       LVL=0
      0100284DH   LINE      ---      ---       #159
      0100284DH   LINE      ---      ---       #160
      0100284DH   LINE      ---      ---       #161
      0100284FH   LINE      ---      ---       #162
      01002864H   LINE      ---      ---       #163
      01002871H   LINE      ---      ---       #164
      01002871H   LINE      ---      ---       #165
      01002941H   LINE      ---      ---       #166
      01002941H   LINE      ---      ---       #167
      01002941H   LINE      ---      ---       #168
      01002943H   LINE      ---      ---       #169
      01002945H   LINE      ---      ---       #170
      01002945H   LINE      ---      ---       #171
      01002948H   LINE      ---      ---       #172
      0100294AH   LINE      ---      ---       #173
      0100294AH   LINE      ---      ---       #174
      0100294CH   LINE      ---      ---       #175
      0100294EH   LINE      ---      ---       #176
      0100294EH   LINE      ---      ---       #177
      01002951H   LINE      ---      ---       #178
      01002953H   LINE      ---      ---       #179
      01002953H   LINE      ---      ---       #180
      01002956H   LINE      ---      ---       #181
      01002958H   LINE      ---      ---       #182
      01002958H   LINE      ---      ---       #183
      0100295BH   LINE      ---      ---       #184
      0100295DH   LINE      ---      ---       #185
      0100295DH   LINE      ---      ---       #186
      0100295FH   LINE      ---      ---       #187
      01002961H   LINE      ---      ---       #188
      01002961H   LINE      ---      ---       #189
      01002963H   LINE      ---      ---       #190
      01002965H   LINE      ---      ---       #191
      01002965H   LINE      ---      ---       #192
      01002967H   LINE      ---      ---       #193
      01002969H   LINE      ---      ---       #194
LX51 LINKER/LOCATER V4.58                                                             08/27/2019  16:41:25  PAGE 67


      01002969H   LINE      ---      ---       #195
      0100296BH   LINE      ---      ---       #196
      0100296DH   LINE      ---      ---       #197
      0100296DH   LINE      ---      ---       #198
      0100296DH   LINE      ---      ---       #199
      0100296FH   LINE      ---      ---       #200
      0100296FH   LINE      ---      ---       #201
      01002976H   LINE      ---      ---       #202
      01002978H   LINE      ---      ---       #203
      0100297AH   LINE      ---      ---       #204
      0100297AH   LINE      ---      ---       #205
      01002982H   LINE      ---      ---       #206
      01002985H   LINE      ---      ---       #207
      01002987H   LINE      ---      ---       #208
      01002987H   LINE      ---      ---       #209
      01002990H   LINE      ---      ---       #210
      01002993H   LINE      ---      ---       #211
      01002995H   LINE      ---      ---       #212
      01002995H   LINE      ---      ---       #213
      0100299BH   LINE      ---      ---       #214
      0100299BH   LINE      ---      ---       #215
      0100299BH   LINE      ---      ---       #216
      0100299DH   LINE      ---      ---       #217
      0100299DH   LINE      ---      ---       #218
      010029A4H   LINE      ---      ---       #219
      010029A4H   LINE      ---      ---       #220
      010029A4H   LINE      ---      ---       #221
      010029A6H   LINE      ---      ---       #222
      010029A6H   LINE      ---      ---       #223
      010029AEH   LINE      ---      ---       #224
      010029AEH   LINE      ---      ---       #225
      010029AEH   LINE      ---      ---       #226
      010029B0H   LINE      ---      ---       #227
      010029B0H   LINE      ---      ---       #228
      010029B9H   LINE      ---      ---       #229
      010029BBH   LINE      ---      ---       #230
      010029CEH   LINE      ---      ---       #231
      010029D0H   LINE      ---      ---       #232
      010029D0H   LINE      ---      ---       #233
      010029E3H   LINE      ---      ---       #234
      010029E5H   LINE      ---      ---       #235
      010029E5H   LINE      ---      ---       #236
      010029E7H   LINE      ---      ---       #237
      010029E9H   LINE      ---      ---       #238
      010029E9H   LINE      ---      ---       #239
      010029FCH   LINE      ---      ---       #240
      01002A07H   LINE      ---      ---       #241
      01002A09H   LINE      ---      ---       #242
      01002A09H   LINE      ---      ---       #243
      01002A0BH   LINE      ---      ---       #244
      01002A0DH   LINE      ---      ---       #245
      01002A0DH   LINE      ---      ---       #246
      01002A0FH   LINE      ---      ---       #247
      01002A12H   LINE      ---      ---       #248
      01002A14H   LINE      ---      ---       #249
      01002A14H   LINE      ---      ---       #250
      01002A16H   LINE      ---      ---       #251
      01002A18H   LINE      ---      ---       #252
      01002A18H   LINE      ---      ---       #253
      01002A1BH   LINE      ---      ---       #254
      01002A1DH   LINE      ---      ---       #255
      01002A1DH   LINE      ---      ---       #256
      01002A1FH   LINE      ---      ---       #257
      01002A21H   LINE      ---      ---       #258
      01002A21H   LINE      ---      ---       #259
LX51 LINKER/LOCATER V4.58                                                             08/27/2019  16:41:25  PAGE 68


      01002A23H   LINE      ---      ---       #260
      01002A25H   LINE      ---      ---       #261
      01002A25H   LINE      ---      ---       #262
      01002A28H   LINE      ---      ---       #263
      01002A2AH   LINE      ---      ---       #264
      01002A2AH   LINE      ---      ---       #265
      01002A2DH   LINE      ---      ---       #266
      01002A2FH   LINE      ---      ---       #267
      01002A2FH   LINE      ---      ---       #268
      01002A32H   LINE      ---      ---       #269
      01002A34H   LINE      ---      ---       #270
      01002A34H   LINE      ---      ---       #271
      01002A37H   LINE      ---      ---       #272
      01002A39H   LINE      ---      ---       #273
      01002A39H   LINE      ---      ---       #274
      01002A3BH   LINE      ---      ---       #275
      01002A3DH   LINE      ---      ---       #276
      01002A3DH   LINE      ---      ---       #277
      01002A3DH   LINE      ---      ---       #278
      01002A3FH   LINE      ---      ---       #279
      01002A3FH   LINE      ---      ---       #280
      01002A46H   LINE      ---      ---       #281
      01002A46H   LINE      ---      ---       #282
      01002A48H   LINE      ---      ---       #283
      01002A48H   LINE      ---      ---       #284
      01002A51H   LINE      ---      ---       #285
      01002A57H   LINE      ---      ---       #286
      01002A59H   LINE      ---      ---       #287
      01002A59H   LINE      ---      ---       #288
      01002A64H   LINE      ---      ---       #289
      01002A67H   LINE      ---      ---       #290
      01002A69H   LINE      ---      ---       #291
      01002A69H   LINE      ---      ---       #292
      01002A6BH   LINE      ---      ---       #293
      01002A6DH   LINE      ---      ---       #294
      01002A6DH   LINE      ---      ---       #295
      01002A6FH   LINE      ---      ---       #296
      01002A71H   LINE      ---      ---       #297
      01002A71H   LINE      ---      ---       #298
      01002A73H   LINE      ---      ---       #299
      01002A75H   LINE      ---      ---       #300
      01002A75H   LINE      ---      ---       #301
      01002A78H   LINE      ---      ---       #302
      01002A7AH   LINE      ---      ---       #303
      01002A7AH   LINE      ---      ---       #304
      01002A7CH   LINE      ---      ---       #305
      01002A7EH   LINE      ---      ---       #306
      01002A7EH   LINE      ---      ---       #307
      01002A80H   LINE      ---      ---       #308
      01002A82H   LINE      ---      ---       #309
      01002A82H   LINE      ---      ---       #310
      01002A84H   LINE      ---      ---       #311
      01002A86H   LINE      ---      ---       #312
      01002A86H   LINE      ---      ---       #313
      01002A89H   LINE      ---      ---       #314
      01002A8BH   LINE      ---      ---       #315
      01002A8BH   LINE      ---      ---       #316
      01002A8EH   LINE      ---      ---       #317
      01002A90H   LINE      ---      ---       #318
      01002A90H   LINE      ---      ---       #319
      01002A93H   LINE      ---      ---       #320
      01002A95H   LINE      ---      ---       #321
      01002A95H   LINE      ---      ---       #322
      01002A98H   LINE      ---      ---       #323
      01002A9AH   LINE      ---      ---       #324
LX51 LINKER/LOCATER V4.58                                                             08/27/2019  16:41:25  PAGE 69


      01002A9AH   LINE      ---      ---       #325
      01002A9CH   LINE      ---      ---       #326
      01002A9EH   LINE      ---      ---       #327
      01002A9EH   LINE      ---      ---       #328
      01002AA5H   LINE      ---      ---       #329
      01002AA5H   LINE      ---      ---       #330
      01002AA5H   LINE      ---      ---       #331
      01002AA5H   LINE      ---      ---       #332
      01002AA5H   LINE      ---      ---       #333
      01002AABH   LINE      ---      ---       #334
      01002AB0H   LINE      ---      ---       #335
      01002AC3H   LINE      ---      ---       #336
      01002AC5H   LINE      ---      ---       #337
      01002AC5H   LINE      ---      ---       #338
      01002AC8H   LINE      ---      ---       #339
      01002ACBH   LINE      ---      ---       #340
      ---         BLOCKEND  ---      ---       LVL=0

      010027C2H   BLOCK     CODE     ---       LVL=0
      010027C2H   LINE      ---      ---       #345
      010027C2H   LINE      ---      ---       #346
      010027C2H   LINE      ---      ---       #347
      010027C8H   LINE      ---      ---       #348
      010027CCH   LINE      ---      ---       #349
      010027CFH   LINE      ---      ---       #350
      010027E0H   LINE      ---      ---       #351
      010027E0H   LINE      ---      ---       #352
      010027E8H   LINE      ---      ---       #353
      010027F0H   LINE      ---      ---       #354
      010027F6H   LINE      ---      ---       #355
      010027F6H   LINE      ---      ---       #356
      ---         BLOCKEND  ---      ---       LVL=0

      01002F4CH   BLOCK     CODE     ---       LVL=0
      01002F4CH   LINE      ---      ---       #358
      01002F4CH   LINE      ---      ---       #359
      01002F4CH   LINE      ---      ---       #360
      ---         BLOCKEND  ---      ---       LVL=0

      01002E15H   BLOCK     CODE     ---       LVL=0
      01002E15H   LINE      ---      ---       #364
      01002E15H   LINE      ---      ---       #365
      01002E15H   LINE      ---      ---       #366
      01002E2AH   LINE      ---      ---       #367
      01002E36H   LINE      ---      ---       #368
      01002E36H   LINE      ---      ---       #369
      01002E39H   LINE      ---      ---       #370
      01002E39H   LINE      ---      ---       #371
      01002E45H   LINE      ---      ---       #372
      01002E45H   LINE      ---      ---       #373
      01002E47H   LINE      ---      ---       #374
      01002E47H   LINE      ---      ---       #375
      ---         BLOCKEND  ---      ---       LVL=0

      01005751H   BLOCK     CODE     ---       LVL=0
      01005751H   LINE      ---      ---       #377
      01005751H   LINE      ---      ---       #378
      01005751H   LINE      ---      ---       #379
      0100575BH   LINE      ---      ---       #380
      ---         BLOCKEND  ---      ---       LVL=0

      01002F3FH   BLOCK     CODE     ---       LVL=0
      01002F3FH   LINE      ---      ---       #383
      01002F3FH   LINE      ---      ---       #384
      01002F3FH   LINE      ---      ---       #391
LX51 LINKER/LOCATER V4.58                                                             08/27/2019  16:41:25  PAGE 70


      ---         BLOCKEND  ---      ---       LVL=0

      01005773H   BLOCK     CODE     ---       LVL=0
      01005773H   LINE      ---      ---       #394
      01005773H   LINE      ---      ---       #395
      01005773H   LINE      ---      ---       #396
      01005789H   LINE      ---      ---       #397
      010057ABH   LINE      ---      ---       #398
      010057ABH   LINE      ---      ---       #399
      010057B5H   LINE      ---      ---       #400
      010057CAH   LINE      ---      ---       #401
      010057CAH   LINE      ---      ---       #403
      010057CAH   LINE      ---      ---       #405
      010057CAH   LINE      ---      ---       #406
      ---         BLOCKEND  ---      ---       LVL=0

      010057CBH   BLOCK     CODE     ---       LVL=0
      010057CBH   LINE      ---      ---       #408
      010057CBH   LINE      ---      ---       #409
      010057CBH   LINE      ---      ---       #410
      010057D5H   LINE      ---      ---       #411
      ---         BLOCKEND  ---      ---       LVL=0

      010027A1H   BLOCK     CODE     ---       LVL=0
      010027A1H   LINE      ---      ---       #414
      010027A1H   LINE      ---      ---       #415
      010027A1H   LINE      ---      ---       #416
      010027A3H   LINE      ---      ---       #417
      010027ADH   LINE      ---      ---       #418
      ---         BLOCKEND  ---      ---       LVL=0

      01002F40H   BLOCK     CODE     ---       LVL=0
      01002F40H   LINE      ---      ---       #422
      01002F40H   LINE      ---      ---       #423
      01002F40H   LINE      ---      ---       #425
      ---         BLOCKEND  ---      ---       LVL=0

      01002F41H   BLOCK     CODE     ---       LVL=0
      01002F41H   LINE      ---      ---       #428
      01002F41H   LINE      ---      ---       #429
      01002F41H   LINE      ---      ---       #431
      ---         BLOCKEND  ---      ---       LVL=0

      01002F42H   BLOCK     CODE     ---       LVL=0
      01002F42H   LINE      ---      ---       #434
      01002F42H   LINE      ---      ---       #435
      01002F42H   LINE      ---      ---       #437
      ---         BLOCKEND  ---      ---       LVL=0

      01002F43H   BLOCK     CODE     ---       LVL=0
      01002F43H   LINE      ---      ---       #439
      01002F43H   LINE      ---      ---       #440
      01002F43H   LINE      ---      ---       #442
      ---         BLOCKEND  ---      ---       LVL=0

      01001FE0H   BLOCK     CODE     ---       LVL=0
      01001FE0H   LINE      ---      ---       #456
      01001FE4H   LINE      ---      ---       #457
      01001FE4H   LINE      ---      ---       #458
      01002000H   LINE      ---      ---       #459
      01002014H   LINE      ---      ---       #461
      01002025H   LINE      ---      ---       #462
      0100203AH   LINE      ---      ---       #463
      0100204EH   LINE      ---      ---       #465
      0100205FH   LINE      ---      ---       #466
LX51 LINKER/LOCATER V4.58                                                             08/27/2019  16:41:25  PAGE 71


      0100207BH   LINE      ---      ---       #467
      0100208FH   LINE      ---      ---       #469
      010020A0H   LINE      ---      ---       #470
      010020B5H   LINE      ---      ---       #471
      010020C9H   LINE      ---      ---       #473
      010020DAH   LINE      ---      ---       #474
      010020F6H   LINE      ---      ---       #475
      0100210AH   LINE      ---      ---       #477
      0100211BH   LINE      ---      ---       #478
      01002130H   LINE      ---      ---       #479
      01002144H   LINE      ---      ---       #481
      01002155H   LINE      ---      ---       #482
      01002171H   LINE      ---      ---       #483
      01002184H   LINE      ---      ---       #485
      01002195H   LINE      ---      ---       #486
      00000004H   SYMBOL    DATA     WORD      time_sel
      ---         BLOCKEND  ---      ---       LVL=0

      01001F6DH   BLOCK     CODE     ---       LVL=0
      01001F6DH   LINE      ---      ---       #500
      01001F6DH   LINE      ---      ---       #501
      01001F6DH   BLOCK     CODE     NEAR LAB  LVL=1
      01001F6DH   LINE      ---      ---       #502
      01001F6FH   LINE      ---      ---       #503
      01001F81H   LINE      ---      ---       #504
      01001F95H   LINE      ---      ---       #505
      01001FA9H   LINE      ---      ---       #506
      01001FABH   LINE      ---      ---       #507
      01001FABH   LINE      ---      ---       #508
      01001FB1H   LINE      ---      ---       #509
      01001FB6H   LINE      ---      ---       #510
      00000003H   SYMBOL    DATA     BYTE      i
      ---         BLOCKEND  CODE     ---       LVL=1
      ---         BLOCKEND  CODE     ---       LVL=0

      010057EFH   BLOCK     CODE     ---       LVL=0
      010057EFH   LINE      ---      ---       #527
      010057F7H   LINE      ---      ---       #528
      020085D2H   SYMBOL    XDATA    WORD      t_sel
      010057F7H   BLOCK     CODE     NEAR LAB  LVL=1
      010057F7H   LINE      ---      ---       #529
      010057FAH   LINE      ---      ---       #530
      010057FEH   LINE      ---      ---       #531
      010057FEH   LINE      ---      ---       #532
      0100580EH   LINE      ---      ---       #533
      01005810H   LINE      ---      ---       #534
      0100581CH   LINE      ---      ---       #535
      0100581CH   LINE      ---      ---       #536
      0100582CH   LINE      ---      ---       #537
      0100582EH   LINE      ---      ---       #538
      0100583AH   LINE      ---      ---       #539
      0100583AH   LINE      ---      ---       #540
      0100584FH   LINE      ---      ---       #541
      0100584FH   LINE      ---      ---       #542
      01005854H   LINE      ---      ---       #543
      01005854H   LINE      ---      ---       #544
      01005898H   LINE      ---      ---       #545
      010058D7H   LINE      ---      ---       #546
      010058E4H   LINE      ---      ---       #547
      010058FAH   LINE      ---      ---       #548
      020085D4H   SYMBOL    XDATA    BYTE      i
      ---         BLOCKEND  CODE     ---       LVL=1
      ---         BLOCKEND  CODE     ---       LVL=0

      01005925H   BLOCK     CODE     ---       LVL=0
LX51 LINKER/LOCATER V4.58                                                             08/27/2019  16:41:25  PAGE 72


      01005925H   LINE      ---      ---       #553
      01005933H   LINE      ---      ---       #554
      01005933H   LINE      ---      ---       #555
      01005978H   LINE      ---      ---       #556
      01005980H   LINE      ---      ---       #557
      010059B5H   LINE      ---      ---       #558
      010059C0H   LINE      ---      ---       #559
      010059D5H   LINE      ---      ---       #560
      010059EAH   LINE      ---      ---       #561
      01005A00H   LINE      ---      ---       #562
      01005A43H   LINE      ---      ---       #563
      01005A6BH   LINE      ---      ---       #564
      01005A80H   LINE      ---      ---       #565
      020085D2H   SYMBOL    XDATA    WORD      t_sel
      020085D4H   SYMBOL    XDATA    WORD      p_sel
      ---         BLOCKEND  ---      ---       LVL=0

      01005A99H   BLOCK     CODE     ---       LVL=0
      01005A99H   LINE      ---      ---       #568
      01005AA7H   LINE      ---      ---       #569
      020085D2H   SYMBOL    XDATA    WORD      t_sel
      020085D4H   SYMBOL    XDATA    WORD      p_sel
      01005AA7H   BLOCK     CODE     NEAR LAB  LVL=1
      01005AA7H   LINE      ---      ---       #570
      01005AAAH   LINE      ---      ---       #571
      01005ABEH   LINE      ---      ---       #572
      01005AD3H   LINE      ---      ---       #573
      01005AEDH   LINE      ---      ---       #574
      01005B3BH   LINE      ---      ---       #575
      01005B3BH   LINE      ---      ---       #576
      01005B45H   LINE      ---      ---       #577
      01005B5AH   LINE      ---      ---       #578
      01005B5DH   LINE      ---      ---       #579
      01005B5DH   LINE      ---      ---       #580
      01005BB1H   LINE      ---      ---       #581
      01005BB1H   LINE      ---      ---       #582
      01005BC1H   LINE      ---      ---       #583
      01005BC1H   LINE      ---      ---       #584
      01005BEBH   LINE      ---      ---       #585
      01005C04H   LINE      ---      ---       #586
      01005C0CH   LINE      ---      ---       #587
      01005C0CH   LINE      ---      ---       #588
      01005C16H   LINE      ---      ---       #589
      01005C16H   LINE      ---      ---       #590
      01005C3DH   LINE      ---      ---       #591
      01005C45H   LINE      ---      ---       #592
      01005C47H   LINE      ---      ---       #594
      01005C47H   LINE      ---      ---       #595
      01005C8BH   LINE      ---      ---       #596
      01005CA4H   LINE      ---      ---       #597
      01005CA4H   LINE      ---      ---       #598
      01005CA6H   LINE      ---      ---       #599
      020085D6H   SYMBOL    XDATA    BYTE      i
      ---         BLOCKEND  CODE     ---       LVL=1
      ---         BLOCKEND  CODE     ---       LVL=0

      01002F44H   BLOCK     CODE     ---       LVL=0
      01002F44H   LINE      ---      ---       #603
      01002F44H   LINE      ---      ---       #604
      01002F44H   LINE      ---      ---       #606
      ---         BLOCKEND  ---      ---       LVL=0

      01005CA7H   BLOCK     CODE     ---       LVL=0
      01005CA7H   LINE      ---      ---       #610
      01005CB5H   LINE      ---      ---       #611
LX51 LINKER/LOCATER V4.58                                                             08/27/2019  16:41:25  PAGE 73


      01005CB5H   LINE      ---      ---       #612
      01005CCAH   LINE      ---      ---       #613
      01005CDFH   LINE      ---      ---       #614
      01005CE9H   LINE      ---      ---       #615
      01005CE9H   LINE      ---      ---       #616
      01005CF3H   LINE      ---      ---       #617
      01005D08H   LINE      ---      ---       #618
      01005D0BH   LINE      ---      ---       #619
      01005D0BH   LINE      ---      ---       #620
      01005D15H   LINE      ---      ---       #621
      01005D15H   LINE      ---      ---       #622
      01005D1FH   LINE      ---      ---       #623
      01005D34H   LINE      ---      ---       #624
      01005D37H   LINE      ---      ---       #625
      01005D37H   LINE      ---      ---       #626
      01005D7AH   LINE      ---      ---       #627
      01005DB5H   LINE      ---      ---       #628
      01005DBFH   LINE      ---      ---       #629
      01005DBFH   LINE      ---      ---       #630
      01005DCFH   LINE      ---      ---       #631
      01005DD1H   LINE      ---      ---       #632
      01005DDDH   LINE      ---      ---       #633
      01005DDDH   LINE      ---      ---       #634
      01005DEDH   LINE      ---      ---       #635
      01005DEFH   LINE      ---      ---       #636
      01005DFBH   LINE      ---      ---       #637
      01005DFBH   LINE      ---      ---       #638
      01005E10H   LINE      ---      ---       #639
      01005E10H   LINE      ---      ---       #640
      01005E12H   LINE      ---      ---       #641
      020085D2H   SYMBOL    XDATA    WORD      t_sel
      020085D4H   SYMBOL    XDATA    WORD      p_sel
      ---         BLOCKEND  ---      ---       LVL=0

      01002F45H   BLOCK     CODE     ---       LVL=0
      01002F45H   LINE      ---      ---       #643
      01002F45H   LINE      ---      ---       #644
      01002F45H   LINE      ---      ---       #646
      ---         BLOCKEND  ---      ---       LVL=0

      01002C81H   BLOCK     CODE     ---       LVL=0
      01002C89H   LINE      ---      ---       #659
      01002C91H   LINE      ---      ---       #660
      020085D2H   SYMBOL    XDATA    WORD      t_sel
      01002C91H   BLOCK     CODE     NEAR LAB  LVL=1
      01002C91H   LINE      ---      ---       #661
      01002C94H   LINE      ---      ---       #662
      01002CA9H   LINE      ---      ---       #663
      01002CBAH   LINE      ---      ---       #664
      01002CBAH   LINE      ---      ---       #665
      01002CCFH   LINE      ---      ---       #666
      01002CCFH   LINE      ---      ---       #667
      01002CFBH   LINE      ---      ---       #668
      01002D30H   LINE      ---      ---       #669
      01002D32H   LINE      ---      ---       #671
      01002D32H   LINE      ---      ---       #672
      01002D5DH   LINE      ---      ---       #673
      01002D9EH   LINE      ---      ---       #674
      01002D9EH   LINE      ---      ---       #675
      01002DA6H   LINE      ---      ---       #676
      01002DBCH   LINE      ---      ---       #677
      01002DC6H   LINE      ---      ---       #678
      01002DC6H   LINE      ---      ---       #679
      01002DD5H   LINE      ---      ---       #680
      01002DD7H   LINE      ---      ---       #681
LX51 LINKER/LOCATER V4.58                                                             08/27/2019  16:41:25  PAGE 74


      01002DE3H   LINE      ---      ---       #682
      01002DE3H   LINE      ---      ---       #683
      01002DF2H   LINE      ---      ---       #684
      01002DF4H   LINE      ---      ---       #685
      01002E00H   LINE      ---      ---       #686
      01002E00H   LINE      ---      ---       #687
      01002E14H   LINE      ---      ---       #688
      01002E14H   LINE      ---      ---       #689
      020085D4H   SYMBOL    XDATA    BYTE      i
      ---         BLOCKEND  CODE     ---       LVL=1
      ---         BLOCKEND  CODE     ---       LVL=0

      01002F46H   BLOCK     CODE     ---       LVL=0
      01002F46H   LINE      ---      ---       #692
      01002F46H   LINE      ---      ---       #693
      01002F46H   LINE      ---      ---       #695
      ---         BLOCKEND  ---      ---       LVL=0

      01005E13H   BLOCK     CODE     ---       LVL=0
      01005E13H   LINE      ---      ---       #699
      01005E13H   LINE      ---      ---       #700
      01005E13H   LINE      ---      ---       #701
      01005E28H   LINE      ---      ---       #702
      01005E42H   LINE      ---      ---       #703
      01005E55H   LINE      ---      ---       #704
      01005E6AH   LINE      ---      ---       #705
      ---         BLOCKEND  ---      ---       LVL=0

      01002C2DH   BLOCK     CODE     ---       LVL=0
      01002C2DH   LINE      ---      ---       #708
      01002C2DH   LINE      ---      ---       #709
      01002C2DH   LINE      ---      ---       #710
      01002C30H   LINE      ---      ---       #712
      01002C58H   LINE      ---      ---       #713
      01002C58H   LINE      ---      ---       #714
      01002C6BH   LINE      ---      ---       #715
      01002C6BH   LINE      ---      ---       #717
      01002C6BH   LINE      ---      ---       #719
      01002C6BH   LINE      ---      ---       #720
      01002C80H   LINE      ---      ---       #722
      ---         BLOCKEND  ---      ---       LVL=0

      01002F47H   BLOCK     CODE     ---       LVL=0
      01002F47H   LINE      ---      ---       #724
      01002F47H   LINE      ---      ---       #725
      01002F47H   LINE      ---      ---       #727
      ---         BLOCKEND  ---      ---       LVL=0

      010054C5H   BLOCK     CODE     ---       LVL=0
      010054C5H   LINE      ---      ---       #729
      010054C5H   LINE      ---      ---       #730
      010054C5H   BLOCK     CODE     NEAR LAB  LVL=1
      010054C5H   LINE      ---      ---       #732
      010054C8H   LINE      ---      ---       #734
      010054F1H   LINE      ---      ---       #735
      010054FFH   LINE      ---      ---       #736
      010054FFH   LINE      ---      ---       #737
      01005503H   LINE      ---      ---       #738
      01005503H   LINE      ---      ---       #739
      01005511H   LINE      ---      ---       #740
      01005511H   LINE      ---      ---       #741
      01005515H   LINE      ---      ---       #742
      01005515H   LINE      ---      ---       #743
      01005528H   LINE      ---      ---       #744
      0100553BH   LINE      ---      ---       #745
LX51 LINKER/LOCATER V4.58                                                             08/27/2019  16:41:25  PAGE 75


      01005550H   LINE      ---      ---       #746
      00000002H   SYMBOL    DATA     WORD      temp
      ---         BLOCKEND  CODE     ---       LVL=1
      ---         BLOCKEND  CODE     ---       LVL=0

      01005569H   BLOCK     CODE     ---       LVL=0
      01005569H   LINE      ---      ---       #749
      01005569H   LINE      ---      ---       #750
      01005569H   BLOCK     CODE     NEAR LAB  LVL=1
      01005569H   LINE      ---      ---       #752
      0100556CH   LINE      ---      ---       #754
      01005598H   LINE      ---      ---       #755
      010055A6H   LINE      ---      ---       #756
      010055A6H   LINE      ---      ---       #757
      010055AAH   LINE      ---      ---       #758
      010055AAH   LINE      ---      ---       #759
      010055B8H   LINE      ---      ---       #760
      010055B8H   LINE      ---      ---       #761
      010055BCH   LINE      ---      ---       #762
      010055BCH   LINE      ---      ---       #763
      010055CFH   LINE      ---      ---       #764
      010055E2H   LINE      ---      ---       #765
      010055F7H   LINE      ---      ---       #766
      00000002H   SYMBOL    DATA     WORD      temp
      ---         BLOCKEND  CODE     ---       LVL=1
      ---         BLOCKEND  CODE     ---       LVL=0

      01005E83H   BLOCK     CODE     ---       LVL=0
      01005E83H   LINE      ---      ---       #770
      01005E83H   LINE      ---      ---       #771
      01005E83H   LINE      ---      ---       #772
      01005E94H   LINE      ---      ---       #773
      01005EA5H   LINE      ---      ---       #774
      01005EB6H   LINE      ---      ---       #775
      01005EC7H   LINE      ---      ---       #776
      01005ED8H   LINE      ---      ---       #777
      ---         BLOCKEND  ---      ---       LVL=0

      01004160H   BLOCK     CODE     ---       LVL=0
      01004160H   LINE      ---      ---       #780
      01004160H   LINE      ---      ---       #781
      01004160H   LINE      ---      ---       #782
      01004176H   LINE      ---      ---       #783
      01004184H   LINE      ---      ---       #784
      01004192H   LINE      ---      ---       #785
      010041A0H   LINE      ---      ---       #786
      010041AEH   LINE      ---      ---       #787
      010041BCH   LINE      ---      ---       #788
      010041D7H   LINE      ---      ---       #789
      010041D7H   LINE      ---      ---       #790
      010041DDH   LINE      ---      ---       #791
      010041DDH   LINE      ---      ---       #792
      010041EAH   LINE      ---      ---       #793
      010041EAH   LINE      ---      ---       #794
      010041F9H   LINE      ---      ---       #795
      010041F9H   LINE      ---      ---       #796
      0100420EH   LINE      ---      ---       #797
      0100420EH   LINE      ---      ---       #798
      0100420EH   LINE      ---      ---       #799
      01004210H   LINE      ---      ---       #801
      01004210H   LINE      ---      ---       #802
      01004222H   LINE      ---      ---       #803
      01004222H   LINE      ---      ---       #804
      01004222H   LINE      ---      ---       #805
      0100422CH   LINE      ---      ---       #806
LX51 LINKER/LOCATER V4.58                                                             08/27/2019  16:41:25  PAGE 76


      0100422CH   LINE      ---      ---       #807
      01004233H   LINE      ---      ---       #808
      01004233H   LINE      ---      ---       #809
      0100423DH   LINE      ---      ---       #810
      0100423DH   LINE      ---      ---       #811
      01004244H   LINE      ---      ---       #812
      01004244H   LINE      ---      ---       #813
      0100424AH   LINE      ---      ---       #814
      0100424EH   LINE      ---      ---       #815
      01004257H   LINE      ---      ---       #816
      01004260H   LINE      ---      ---       #817
      01004269H   LINE      ---      ---       #818
      01004272H   LINE      ---      ---       #819
      0100427BH   LINE      ---      ---       #820
      0100427EH   LINE      ---      ---       #822
      01004286H   LINE      ---      ---       #823
      ---         BLOCKEND  ---      ---       LVL=0

      01002F49H   BLOCK     CODE     ---       LVL=0
      01002F49H   LINE      ---      ---       #827
      01002F49H   LINE      ---      ---       #828
      01002F49H   LINE      ---      ---       #830
      ---         BLOCKEND  ---      ---       LVL=0

      01005EF2H   BLOCK     CODE     ---       LVL=0
      01005EF2H   LINE      ---      ---       #836
      01005EF2H   LINE      ---      ---       #837
      01005EF2H   LINE      ---      ---       #838
      01005F08H   LINE      ---      ---       #839
      01005F1DH   LINE      ---      ---       #840
      01005F28H   LINE      ---      ---       #841
      01005F3DH   LINE      ---      ---       #842
      01005F48H   LINE      ---      ---       #843
      ---         BLOCKEND  ---      ---       LVL=0

      01005F62H   BLOCK     CODE     ---       LVL=0
      01005F62H   LINE      ---      ---       #846
      01005F6AH   LINE      ---      ---       #847
      01005F6AH   LINE      ---      ---       #848
      01005F80H   LINE      ---      ---       #849
      01005F8DH   LINE      ---      ---       #850
      01005F8DH   LINE      ---      ---       #851
      01005FA3H   LINE      ---      ---       #852
      01005FAEH   LINE      ---      ---       #853
      01005FB1H   LINE      ---      ---       #854
      01005FB3H   LINE      ---      ---       #855
      01005FB9H   LINE      ---      ---       #856
      01005FB9H   LINE      ---      ---       #857
      01005FCFH   LINE      ---      ---       #858
      01005FDAH   LINE      ---      ---       #859
      01005FE9H   LINE      ---      ---       #860
      01005FE9H   LINE      ---      ---       #861
      020085D2H   SYMBOL    XDATA    WORD      alarm_sel
      ---         BLOCKEND  ---      ---       LVL=0

      01006003H   BLOCK     CODE     ---       LVL=0
      01006003H   LINE      ---      ---       #864
      0100600BH   LINE      ---      ---       #865
      0100600BH   LINE      ---      ---       #866
      01006021H   LINE      ---      ---       #867
      0100602EH   LINE      ---      ---       #868
      0100602EH   LINE      ---      ---       #869
      01006051H   LINE      ---      ---       #870
      0100605BH   LINE      ---      ---       #871
      0100605DH   LINE      ---      ---       #872
LX51 LINKER/LOCATER V4.58                                                             08/27/2019  16:41:25  PAGE 77


      01006063H   LINE      ---      ---       #873
      01006063H   LINE      ---      ---       #874
      01006086H   LINE      ---      ---       #875
      01006095H   LINE      ---      ---       #876
      01006095H   LINE      ---      ---       #877
      020085D2H   SYMBOL    XDATA    WORD      alarm_sel
      ---         BLOCKEND  ---      ---       LVL=0

      01002F48H   BLOCK     CODE     ---       LVL=0
      01002F48H   LINE      ---      ---       #881
      01002F48H   LINE      ---      ---       #882
      01002F48H   LINE      ---      ---       #884
      ---         BLOCKEND  ---      ---       LVL=0

      01002F66H   BLOCK     CODE     ---       LVL=0
      01002F66H   LINE      ---      ---       #896
      01002F66H   LINE      ---      ---       #897
      01002F66H   LINE      ---      ---       #898
      01002F6DH   LINE      ---      ---       #899
      01002F81H   LINE      ---      ---       #901
      ---         BLOCKEND  ---      ---       LVL=0

      01002848H   BLOCK     CODE     ---       LVL=0
      01002848H   LINE      ---      ---       #905
      01002848H   LINE      ---      ---       #906
      01002848H   LINE      ---      ---       #907
      0100284AH   LINE      ---      ---       #908
      0100284CH   LINE      ---      ---       #909
      ---         BLOCKEND  ---      ---       LVL=0

      01002F84H   BLOCK     CODE     ---       LVL=0
      01002F84H   LINE      ---      ---       #913
      01002F84H   LINE      ---      ---       #914
      01002F84H   LINE      ---      ---       #915
      01002F8AH   LINE      ---      ---       #916
      ---         BLOCKEND  ---      ---       LVL=0

      01002FA2H   BLOCK     CODE     ---       LVL=0
      01002FA2H   LINE      ---      ---       #920
      01002FA2H   LINE      ---      ---       #921
      01002FA2H   LINE      ---      ---       #922
      01002FA8H   LINE      ---      ---       #923
      ---         BLOCKEND  ---      ---       LVL=0

      01002FC0H   BLOCK     CODE     ---       LVL=0
      01002FC0H   LINE      ---      ---       #926
      01002FC0H   LINE      ---      ---       #927
      01002FC0H   LINE      ---      ---       #928
      01002FC6H   LINE      ---      ---       #929
      ---         BLOCKEND  ---      ---       LVL=0

      01005610H   BLOCK     CODE     ---       LVL=0
      01005610H   LINE      ---      ---       #933
      01005610H   LINE      ---      ---       #934
      01005610H   LINE      ---      ---       #935
      01005616H   LINE      ---      ---       #936
      ---         BLOCKEND  ---      ---       LVL=0

      010060AFH   BLOCK     CODE     ---       LVL=0
      010060AFH   LINE      ---      ---       #940
      010060AFH   LINE      ---      ---       #941
      010060AFH   LINE      ---      ---       #942
      010060B7H   LINE      ---      ---       #943
      010060C0H   LINE      ---      ---       #944
      010060C0H   LINE      ---      ---       #945
LX51 LINKER/LOCATER V4.58                                                             08/27/2019  16:41:25  PAGE 78


      010060C6H   LINE      ---      ---       #946
      010060C6H   LINE      ---      ---       #947
      ---         BLOCKEND  ---      ---       LVL=0

      010060DEH   BLOCK     CODE     ---       LVL=0
      010060DEH   LINE      ---      ---       #951
      010060DEH   LINE      ---      ---       #952
      010060DEH   LINE      ---      ---       #953
      010060E6H   LINE      ---      ---       #954
      010060F1H   LINE      ---      ---       #955
      010060F1H   LINE      ---      ---       #956
      010060F7H   LINE      ---      ---       #957
      010060F7H   LINE      ---      ---       #958
      ---         BLOCKEND  ---      ---       LVL=0

      0100610FH   BLOCK     CODE     ---       LVL=0
      0100610FH   LINE      ---      ---       #963
      0100610FH   LINE      ---      ---       #964
      0100610FH   LINE      ---      ---       #965
      01006117H   LINE      ---      ---       #966
      01006120H   LINE      ---      ---       #967
      01006120H   LINE      ---      ---       #968
      01006126H   LINE      ---      ---       #969
      01006126H   LINE      ---      ---       #970
      ---         BLOCKEND  ---      ---       LVL=0

      0100613FH   BLOCK     CODE     ---       LVL=0
      0100613FH   LINE      ---      ---       #973
      01006147H   LINE      ---      ---       #974
      020085D2H   SYMBOL    XDATA    WORD      num
      01006147H   BLOCK     CODE     NEAR LAB  LVL=1
      01006147H   LINE      ---      ---       #976
      0100614DH   LINE      ---      ---       #978
      01006162H   LINE      ---      ---       #979
      01006162H   LINE      ---      ---       #980
      01006162H   LINE      ---      ---       #981
      0100616CH   LINE      ---      ---       #982
      0100616CH   LINE      ---      ---       #983
      00000007H   SYMBOL    DATA     BYTE      i
      ---         BLOCKEND  CODE     ---       LVL=1
      ---         BLOCKEND  CODE     ---       LVL=0

      ---         MODULE    ---      ---       UART
      02008337H   PUBLIC    XDATA    ---       Uart3_Rx
      020082B7H   PUBLIC    XDATA    ---       Uart2_Rx
      020082B5H   PUBLIC    XDATA    WORD      uart5_rx_count
      020082B3H   PUBLIC    XDATA    WORD      uart3_rx_count
      020082B1H   PUBLIC    XDATA    WORD      uart2_rx_count
      020082B0H   PUBLIC    XDATA    BYTE      uart3_busy
      020082AFH   PUBLIC    XDATA    BYTE      uart2_busy
      020082AEH   PUBLIC    XDATA    BYTE      Uart3_TTL_Status
      020082ADH   PUBLIC    XDATA    BYTE      Uart2_TTL_Status
      0200822DH   PUBLIC    XDATA    ---       Uart5_Rx
      010062ACH   PUBLIC    CODE     ---       UART5_RX_ISR_PC
      010062ABH   PUBLIC    CODE     ---       UART5_TX_ISR_PC
      01006298H   PUBLIC    CODE     ---       UART5_Init
      01006235H   PUBLIC    CODE     ---       UART3_ISR_PC
      010061F5H   PUBLIC    CODE     ---       _UART3_SendStr
      010061E4H   PUBLIC    CODE     ---       _UART3_Sendbyte
      010061D5H   PUBLIC    CODE     ---       UART3_Init
      0100617EH   PUBLIC    CODE     ---       UART2_ISR_PC
      01004ED9H   PUBLIC    CODE     ---       _UART2_SendStr
      01004F19H   PUBLIC    CODE     ---       _UART2_Sendbyte
      0100616DH   PUBLIC    CODE     ---       UART2_Init
      000000F1H   SFRSYM    DATA     BYTE      ADR_H
LX51 LINKER/LOCATER V4.58                                                             08/27/2019  16:41:25  PAGE 79


      00000080H   SFRSYM    DATA     BYTE      P0
      00000090H   SFRSYM    DATA     BYTE      P1
      000000A0H   SFRSYM    DATA     BYTE      P2
      000000B0H   SFRSYM    DATA     BYTE      P3
      000000F3H   SFRSYM    DATA     BYTE      ADR_L
      000000D0H.6 SFRSYM    DATA     BIT       AC
      00000094H   SFRSYM    DATA     BYTE      PAGESEL
      000000F2H   SFRSYM    DATA     BYTE      ADR_M
      000000A8H.7 SFRSYM    DATA     BIT       EA
      000000F8H   SFRSYM    DATA     BYTE      RAMMODE
      000000B7H   SFRSYM    DATA     BYTE      P0MDOUT
      000000BCH   SFRSYM    DATA     BYTE      P1MDOUT
      000000A8H   SFRSYM    DATA     BYTE      IEN0
      000000BDH   SFRSYM    DATA     BYTE      P2MDOUT
      000000B8H   SFRSYM    DATA     BYTE      IEN1
      000000BEH   SFRSYM    DATA     BYTE      P3MDOUT
      0000009AH   SFRSYM    DATA     BYTE      IEN2
      000000F8H.4 SFRSYM    DATA     BIT       APP_ACK
      000000A0H.1 SFRSYM    DATA     BIT       P2_1
      000000F4H   SFRSYM    DATA     BYTE      ADR_INC
      000000B8H.1 SFRSYM    DATA     BIT       ECAN
      00000090H.4 SFRSYM    DATA     BIT       Medium_Speed_Valve
      000000D0H.7 SFRSYM    DATA     BIT       CY
      000000B8H.3 SFRSYM    DATA     BIT       ES2R
      000000B8H.5 SFRSYM    DATA     BIT       ES3R
      000000B8H.2 SFRSYM    DATA     BIT       ES2T
      000000B8H.4 SFRSYM    DATA     BIT       ES3T
      00000081H   SFRSYM    DATA     BYTE      SP
      000000D0H.2 SFRSYM    DATA     BIT       OV
      00000095H   SFRSYM    DATA     BYTE      D_PAGESEL
      000000F8H.7 SFRSYM    DATA     BIT       APP_REQ
      000000BFH   SFRSYM    DATA     BYTE      IRCON2
      000000BAH   SFRSYM    DATA     BYTE      SREL0H
      000000BBH   SFRSYM    DATA     BYTE      SREL1H
      00000087H   SFRSYM    DATA     BYTE      PCON
      000000F9H   SFRSYM    DATA     BYTE      PORTDRV
      000000AAH   SFRSYM    DATA     BYTE      SREL0L
      0000009DH   SFRSYM    DATA     BYTE      SREL1L
      00000089H   SFRSYM    DATA     BYTE      TMOD
      00000088H   SFRSYM    DATA     BYTE      TCON
      00000090H.2 SFRSYM    DATA     BIT       High_Speed_Valve
      000000FFH   SFRSYM    DATA     BYTE      EXDATA
      00000097H   SFRSYM    DATA     BYTE      SCON2R
      000000ABH   SFRSYM    DATA     BYTE      SCON3R
      000000D9H   SFRSYM    DATA     BYTE      BODE2_DIV_H
      000000AEH   SFRSYM    DATA     BYTE      BODE3_DIV_H
      00000096H   SFRSYM    DATA     BYTE      SCON2T
      000000A7H   SFRSYM    DATA     BYTE      SCON3T
      000000E7H   SFRSYM    DATA     BYTE      BODE2_DIV_L
      00000088H.1 SFRSYM    DATA     BIT       IE0
      000000AFH   SFRSYM    DATA     BYTE      BODE3_DIV_L
      00000088H.3 SFRSYM    DATA     BIT       IE1
      000000C9H   SFRSYM    DATA     BYTE      MUX_SEL
      000000F0H   SFRSYM    DATA     BYTE      B
      000000E0H   SFRSYM    DATA     BYTE      ACC
      00000080H.1 SFRSYM    DATA     BIT       RS485_TX_EN
      0000008FH   SFRSYM    DATA     BYTE      CAN_CR
      000000A8H.4 SFRSYM    DATA     BIT       ES0
      000000A9H   SFRSYM    DATA     BYTE      IP0
      000000A8H.1 SFRSYM    DATA     BIT       ET0
      000000B9H   SFRSYM    DATA     BYTE      IP1
      000000A8H.3 SFRSYM    DATA     BIT       ET1
      00000088H.5 SFRSYM    DATA     BIT       TF0
      000000FDH   SFRSYM    DATA     BYTE      DATA0
      000000A8H.5 SFRSYM    DATA     BIT       ET2
LX51 LINKER/LOCATER V4.58                                                             08/27/2019  16:41:25  PAGE 80


      00000098H   SFRSYM    DATA     BIT       RI0
      00000088H.7 SFRSYM    DATA     BIT       TF1
      000000E8H   SFRSYM    DATA     BYTE      CAN_ET
      000000FCH   SFRSYM    DATA     BYTE      DATA1
      000000C0H.6 SFRSYM    DATA     BIT       TF2
      0000008CH   SFRSYM    DATA     BYTE      TH0
      000000FBH   SFRSYM    DATA     BYTE      DATA2
      000000A8H   SFRSYM    DATA     BIT       EX0
      00000098H.1 SFRSYM    DATA     BIT       TI0
      0000008DH   SFRSYM    DATA     BYTE      TH1
      00000088H   SFRSYM    DATA     BIT       IT0
      00000091H   SFRSYM    DATA     BYTE      CAN_IR
      000000FAH   SFRSYM    DATA     BYTE      DATA3
      000000CDH   SFRSYM    DATA     BYTE      TH2
      000000A8H.2 SFRSYM    DATA     BIT       EX1
      00000088H.2 SFRSYM    DATA     BIT       IT1
      000000D0H   SFRSYM    DATA     BIT       P
      000000A0H.2 SFRSYM    DATA     BIT       KEY1_Vin_F
      0000008AH   SFRSYM    DATA     BYTE      TL0
      0000008BH   SFRSYM    DATA     BYTE      TL1
      000000CCH   SFRSYM    DATA     BYTE      TL2
      000000F8H.6 SFRSYM    DATA     BIT       APP_EN
      000000D0H.3 SFRSYM    DATA     BIT       RS0
      000000D0H.4 SFRSYM    DATA     BIT       RS1
      00000088H.4 SFRSYM    DATA     BIT       TR0
      00000093H   SFRSYM    DATA     BYTE      DPC
      00000088H.6 SFRSYM    DATA     BIT       TR1
      000000E5H   SFRSYM    DATA     BYTE      MAC_MODE
      000000C8H   SFRSYM    DATA     BIT       TR2
      00000083H   SFRSYM    DATA     BYTE      DPH
      00000082H   SFRSYM    DATA     BYTE      DPL
      00000099H   SFRSYM    DATA     BYTE      SBUF0
      0000009CH   SFRSYM    DATA     BYTE      SBUF1
      00000098H   SFRSYM    DATA     BYTE      SCON0
      0000009BH   SFRSYM    DATA     BYTE      SCON1
      000000D8H   SFRSYM    DATA     BYTE      ADCON
      00000090H.3 SFRSYM    DATA     BIT       Water_Valve
      000000C8H   SFRSYM    DATA     BYTE      T2CON
      00000090H.1 SFRSYM    DATA     BIT       Low_Speed_Valve
      000000E6H   SFRSYM    DATA     BYTE      DIV_MODE
      000000F8H.5 SFRSYM    DATA     BIT       APP_RW
      000000CBH   SFRSYM    DATA     BYTE      TRL2H
      0000009FH   SFRSYM    DATA     BYTE      SBUF2_RX
      000000ADH   SFRSYM    DATA     BYTE      SBUF3_RX
      0000008EH   SFRSYM    DATA     BYTE      CKCON
      0000009EH   SFRSYM    DATA     BYTE      SBUF2_TX
      000000ACH   SFRSYM    DATA     BYTE      SBUF3_TX
      000000CAH   SFRSYM    DATA     BYTE      TRL2L
      000000FEH   SFRSYM    DATA     BYTE      EXADR
      000000D0H.5 SFRSYM    DATA     BIT       F0
      000000D0H.1 SFRSYM    DATA     BIT       F1
      000000D0H   SFRSYM    DATA     BYTE      PSW
      000000C0H   SFRSYM    DATA     BYTE      IRCON

      0100616DH   BLOCK     CODE     ---       LVL=0
      0100616DH   LINE      ---      ---       #40
      0100616DH   LINE      ---      ---       #41
      0100616DH   LINE      ---      ---       #42
      01006170H   LINE      ---      ---       #43
      01006173H   LINE      ---      ---       #44
      01006176H   LINE      ---      ---       #45
      01006179H   LINE      ---      ---       #46
      0100617BH   LINE      ---      ---       #47
      0100617DH   LINE      ---      ---       #48
      ---         BLOCKEND  ---      ---       LVL=0
LX51 LINKER/LOCATER V4.58                                                             08/27/2019  16:41:25  PAGE 81



      01004F19H   BLOCK     CODE     ---       LVL=0
      01004F19H   LINE      ---      ---       #50
      01004F19H   LINE      ---      ---       #51
      01004F19H   LINE      ---      ---       #52
      01004F21H   LINE      ---      ---       #53
      01004F27H   LINE      ---      ---       #54
      01004F29H   LINE      ---      ---       #55
      00000007H   SYMBOL    DATA     BYTE      dat
      ---         BLOCKEND  ---      ---       LVL=0

      01004ED9H   BLOCK     CODE     ---       LVL=0
      01004ED9H   LINE      ---      ---       #59
      01004EE4H   LINE      ---      ---       #60
      01004EE4H   LINE      ---      ---       #61
      01004EF5H   LINE      ---      ---       #62
      01004EF5H   LINE      ---      ---       #64
      01004EF5H   LINE      ---      ---       #65
      01004EFBH   LINE      ---      ---       #66
      01004EFBH   LINE      ---      ---       #67
      01004F0CH   LINE      ---      ---       #68
      01004F16H   LINE      ---      ---       #69
      01004F18H   LINE      ---      ---       #70
      0200869EH   SYMBOL    XDATA    ---       pstr
      00000005H   SYMBOL    DATA     BYTE      strlen
      ---         BLOCKEND  ---      ---       LVL=0

      0100617EH   BLOCK     CODE     ---       LVL=0
      0100618BH   LINE      ---      ---       #73
      0100618BH   BLOCK     CODE     NEAR LAB  LVL=1
      0100618BH   LINE      ---      ---       #75
      0100618BH   LINE      ---      ---       #76
      0100618DH   LINE      ---      ---       #77
      01006190H   LINE      ---      ---       #78
      01006190H   LINE      ---      ---       #79
      01006192H   LINE      ---      ---       #80
      010061A2H   LINE      ---      ---       #81
      010061B0H   LINE      ---      ---       #82
      010061B2H   LINE      ---      ---       #83
      010061B8H   LINE      ---      ---       #84
      010061BEH   LINE      ---      ---       #85
      010061BEH   LINE      ---      ---       #86
      010061C1H   LINE      ---      ---       #87
      010061C1H   LINE      ---      ---       #88
      010061C3H   LINE      ---      ---       #89
      010061C8H   LINE      ---      ---       #90
      010061C8H   LINE      ---      ---       #91
      010061CAH   LINE      ---      ---       #92
      00000007H   SYMBOL    DATA     BYTE      res
      ---         BLOCKEND  CODE     ---       LVL=1
      ---         BLOCKEND  CODE     ---       LVL=0

      010061D5H   BLOCK     CODE     ---       LVL=0
      010061D5H   LINE      ---      ---       #94
      010061D5H   LINE      ---      ---       #95
      010061D5H   LINE      ---      ---       #96
      010061D8H   LINE      ---      ---       #99
      010061DBH   LINE      ---      ---       #100
      010061DEH   LINE      ---      ---       #101
      010061E1H   LINE      ---      ---       #102
      010061E3H   LINE      ---      ---       #103
      ---         BLOCKEND  ---      ---       LVL=0

      010061E4H   BLOCK     CODE     ---       LVL=0
      010061E4H   LINE      ---      ---       #113
LX51 LINKER/LOCATER V4.58                                                             08/27/2019  16:41:25  PAGE 82


      010061E4H   LINE      ---      ---       #114
      010061E4H   LINE      ---      ---       #115
      010061ECH   LINE      ---      ---       #116
      010061F2H   LINE      ---      ---       #117
      010061F4H   LINE      ---      ---       #118
      00000007H   SYMBOL    DATA     BYTE      dat
      ---         BLOCKEND  ---      ---       LVL=0

      010061F5H   BLOCK     CODE     ---       LVL=0
      010061F5H   LINE      ---      ---       #139
      01006200H   LINE      ---      ---       #140
      01006200H   LINE      ---      ---       #141
      01006211H   LINE      ---      ---       #142
      01006211H   LINE      ---      ---       #144
      01006211H   LINE      ---      ---       #145
      01006217H   LINE      ---      ---       #146
      01006217H   LINE      ---      ---       #147
      01006228H   LINE      ---      ---       #148
      01006232H   LINE      ---      ---       #149
      01006234H   LINE      ---      ---       #150
      020085D2H   SYMBOL    XDATA    ---       pstr
      00000005H   SYMBOL    DATA     BYTE      strlen
      ---         BLOCKEND  ---      ---       LVL=0

      01006235H   BLOCK     CODE     ---       LVL=0
      01006242H   LINE      ---      ---       #162
      01006242H   BLOCK     CODE     NEAR LAB  LVL=1
      01006242H   LINE      ---      ---       #164
      01006242H   LINE      ---      ---       #165
      01006244H   LINE      ---      ---       #166
      01006249H   LINE      ---      ---       #167
      01006249H   LINE      ---      ---       #168
      0100624BH   LINE      ---      ---       #169
      0100625BH   LINE      ---      ---       #170
      01006269H   LINE      ---      ---       #171
      0100626CH   LINE      ---      ---       #172
      0100626FH   LINE      ---      ---       #173
      01006275H   LINE      ---      ---       #174
      0100627BH   LINE      ---      ---       #175
      0100627BH   LINE      ---      ---       #176
      01006280H   LINE      ---      ---       #177
      01006280H   LINE      ---      ---       #178
      01006283H   LINE      ---      ---       #179
      01006286H   LINE      ---      ---       #180
      0100628BH   LINE      ---      ---       #181
      0100628BH   LINE      ---      ---       #182
      0100628DH   LINE      ---      ---       #183
      00000007H   SYMBOL    DATA     BYTE      res
      ---         BLOCKEND  CODE     ---       LVL=1
      ---         BLOCKEND  CODE     ---       LVL=0

      01006298H   BLOCK     CODE     ---       LVL=0
      01006298H   LINE      ---      ---       #196
      01006298H   LINE      ---      ---       #197
      01006298H   LINE      ---      ---       #198
      0100629BH   LINE      ---      ---       #199
      0100629EH   LINE      ---      ---       #200
      010062A1H   LINE      ---      ---       #201
      010062A4H   LINE      ---      ---       #203
      010062A6H   LINE      ---      ---       #204
      010062A8H   LINE      ---      ---       #205
      010062AAH   LINE      ---      ---       #206
      ---         BLOCKEND  ---      ---       LVL=0
      00000007H   SYMBOL    DATA     BYTE      dat
      00000005H   SYMBOL    DATA     BYTE      strlen
LX51 LINKER/LOCATER V4.58                                                             08/27/2019  16:41:25  PAGE 83



      010062ABH   BLOCK     CODE     ---       LVL=0
      010062ABH   LINE      ---      ---       #256
      010062ABH   LINE      ---      ---       #258
      ---         BLOCKEND  ---      ---       LVL=0

      010062ACH   BLOCK     CODE     ---       LVL=0
      010062B9H   LINE      ---      ---       #270
      010062B9H   BLOCK     CODE     NEAR LAB  LVL=1
      010062B9H   LINE      ---      ---       #272
      010062B9H   LINE      ---      ---       #273
      010062BBH   LINE      ---      ---       #274
      010062C0H   LINE      ---      ---       #275
      010062C0H   LINE      ---      ---       #276
      010062C2H   LINE      ---      ---       #277
      010062D2H   LINE      ---      ---       #278
      010062E0H   LINE      ---      ---       #279
      010062E3H   LINE      ---      ---       #280
      010062E3H   LINE      ---      ---       #281
      010062E5H   LINE      ---      ---       #282
      00000007H   SYMBOL    DATA     BYTE      res
      ---         BLOCKEND  CODE     ---       LVL=1
      ---         BLOCKEND  CODE     ---       LVL=0

      ---         MODULE    ---      ---       TP_DRAW
      0200822CH   PUBLIC    XDATA    ---       sx
      0200822AH   PUBLIC    XDATA    WORD      sxi
      02008228H   PUBLIC    XDATA    ---       Coord_in
      02008128H   PUBLIC    XDATA    ---       Gbk_XY
      02008100H   PUBLIC    XDATA    ---       ramdata_rd
      02008000H   PUBLIC    XDATA    ---       Coord_XY
      00000026H   PUBLIC    DATA     ---       tese_p
      000000F1H   SFRSYM    DATA     BYTE      ADR_H
      00000080H   SFRSYM    DATA     BYTE      P0
      00000090H   SFRSYM    DATA     BYTE      P1
      000000A0H   SFRSYM    DATA     BYTE      P2
      000000B0H   SFRSYM    DATA     BYTE      P3
      000000F3H   SFRSYM    DATA     BYTE      ADR_L
      000000D0H.6 SFRSYM    DATA     BIT       AC
      00000094H   SFRSYM    DATA     BYTE      PAGESEL
      000000F2H   SFRSYM    DATA     BYTE      ADR_M
      000000A8H.7 SFRSYM    DATA     BIT       EA
      000000F8H   SFRSYM    DATA     BYTE      RAMMODE
      000000B7H   SFRSYM    DATA     BYTE      P0MDOUT
      000000BCH   SFRSYM    DATA     BYTE      P1MDOUT
      000000A8H   SFRSYM    DATA     BYTE      IEN0
      000000BDH   SFRSYM    DATA     BYTE      P2MDOUT
      000000B8H   SFRSYM    DATA     BYTE      IEN1
      000000BEH   SFRSYM    DATA     BYTE      P3MDOUT
      0000009AH   SFRSYM    DATA     BYTE      IEN2
      000000F8H.4 SFRSYM    DATA     BIT       APP_ACK
      000000A0H.1 SFRSYM    DATA     BIT       P2_1
      000000F4H   SFRSYM    DATA     BYTE      ADR_INC
      000000B8H.1 SFRSYM    DATA     BIT       ECAN
      00000090H.4 SFRSYM    DATA     BIT       Medium_Speed_Valve
      000000D0H.7 SFRSYM    DATA     BIT       CY
      000000B8H.3 SFRSYM    DATA     BIT       ES2R
      000000B8H.5 SFRSYM    DATA     BIT       ES3R
      000000B8H.2 SFRSYM    DATA     BIT       ES2T
      000000B8H.4 SFRSYM    DATA     BIT       ES3T
      00000081H   SFRSYM    DATA     BYTE      SP
      000000D0H.2 SFRSYM    DATA     BIT       OV
      00000095H   SFRSYM    DATA     BYTE      D_PAGESEL
      000000F8H.7 SFRSYM    DATA     BIT       APP_REQ
      000000BFH   SFRSYM    DATA     BYTE      IRCON2
LX51 LINKER/LOCATER V4.58                                                             08/27/2019  16:41:25  PAGE 84


      000000BAH   SFRSYM    DATA     BYTE      SREL0H
      000000BBH   SFRSYM    DATA     BYTE      SREL1H
      00000087H   SFRSYM    DATA     BYTE      PCON
      000000F9H   SFRSYM    DATA     BYTE      PORTDRV
      000000AAH   SFRSYM    DATA     BYTE      SREL0L
      0000009DH   SFRSYM    DATA     BYTE      SREL1L
      00000089H   SFRSYM    DATA     BYTE      TMOD
      00000088H   SFRSYM    DATA     BYTE      TCON
      00000090H.2 SFRSYM    DATA     BIT       High_Speed_Valve
      000000FFH   SFRSYM    DATA     BYTE      EXDATA
      00000097H   SFRSYM    DATA     BYTE      SCON2R
      000000ABH   SFRSYM    DATA     BYTE      SCON3R
      000000D9H   SFRSYM    DATA     BYTE      BODE2_DIV_H
      000000AEH   SFRSYM    DATA     BYTE      BODE3_DIV_H
      00000096H   SFRSYM    DATA     BYTE      SCON2T
      000000A7H   SFRSYM    DATA     BYTE      SCON3T
      000000E7H   SFRSYM    DATA     BYTE      BODE2_DIV_L
      00000088H.1 SFRSYM    DATA     BIT       IE0
      000000AFH   SFRSYM    DATA     BYTE      BODE3_DIV_L
      00000088H.3 SFRSYM    DATA     BIT       IE1
      000000C9H   SFRSYM    DATA     BYTE      MUX_SEL
      000000F0H   SFRSYM    DATA     BYTE      B
      000000E0H   SFRSYM    DATA     BYTE      ACC
      0000008FH   SFRSYM    DATA     BYTE      CAN_CR
      000000A8H.4 SFRSYM    DATA     BIT       ES0
      000000A9H   SFRSYM    DATA     BYTE      IP0
      000000A8H.1 SFRSYM    DATA     BIT       ET0
      000000B9H   SFRSYM    DATA     BYTE      IP1
      000000A8H.3 SFRSYM    DATA     BIT       ET1
      00000088H.5 SFRSYM    DATA     BIT       TF0
      000000FDH   SFRSYM    DATA     BYTE      DATA0
      000000A8H.5 SFRSYM    DATA     BIT       ET2
      00000098H   SFRSYM    DATA     BIT       RI0
      00000088H.7 SFRSYM    DATA     BIT       TF1
      000000E8H   SFRSYM    DATA     BYTE      CAN_ET
      000000FCH   SFRSYM    DATA     BYTE      DATA1
      000000C0H.6 SFRSYM    DATA     BIT       TF2
      0000008CH   SFRSYM    DATA     BYTE      TH0
      000000FBH   SFRSYM    DATA     BYTE      DATA2
      000000A8H   SFRSYM    DATA     BIT       EX0
      00000098H.1 SFRSYM    DATA     BIT       TI0
      0000008DH   SFRSYM    DATA     BYTE      TH1
      00000088H   SFRSYM    DATA     BIT       IT0
      00000091H   SFRSYM    DATA     BYTE      CAN_IR
      000000FAH   SFRSYM    DATA     BYTE      DATA3
      000000CDH   SFRSYM    DATA     BYTE      TH2
      000000A8H.2 SFRSYM    DATA     BIT       EX1
      00000088H.2 SFRSYM    DATA     BIT       IT1
      000000D0H   SFRSYM    DATA     BIT       P
      000000A0H.2 SFRSYM    DATA     BIT       KEY1_Vin_F
      0000008AH   SFRSYM    DATA     BYTE      TL0
      0000008BH   SFRSYM    DATA     BYTE      TL1
      000000CCH   SFRSYM    DATA     BYTE      TL2
      000000F8H.6 SFRSYM    DATA     BIT       APP_EN
      000000D0H.3 SFRSYM    DATA     BIT       RS0
      000000D0H.4 SFRSYM    DATA     BIT       RS1
      00000088H.4 SFRSYM    DATA     BIT       TR0
      00000093H   SFRSYM    DATA     BYTE      DPC
      00000088H.6 SFRSYM    DATA     BIT       TR1
      000000E5H   SFRSYM    DATA     BYTE      MAC_MODE
      000000C8H   SFRSYM    DATA     BIT       TR2
      00000083H   SFRSYM    DATA     BYTE      DPH
      00000082H   SFRSYM    DATA     BYTE      DPL
      00000099H   SFRSYM    DATA     BYTE      SBUF0
      0000009CH   SFRSYM    DATA     BYTE      SBUF1
LX51 LINKER/LOCATER V4.58                                                             08/27/2019  16:41:25  PAGE 85


      00000098H   SFRSYM    DATA     BYTE      SCON0
      0000009BH   SFRSYM    DATA     BYTE      SCON1
      000000D8H   SFRSYM    DATA     BYTE      ADCON
      00000090H.3 SFRSYM    DATA     BIT       Water_Valve
      000000C8H   SFRSYM    DATA     BYTE      T2CON
      00000090H.1 SFRSYM    DATA     BIT       Low_Speed_Valve
      000000E6H   SFRSYM    DATA     BYTE      DIV_MODE
      000000F8H.5 SFRSYM    DATA     BIT       APP_RW
      000000CBH   SFRSYM    DATA     BYTE      TRL2H
      0000009FH   SFRSYM    DATA     BYTE      SBUF2_RX
      000000ADH   SFRSYM    DATA     BYTE      SBUF3_RX
      0000008EH   SFRSYM    DATA     BYTE      CKCON
      0000009EH   SFRSYM    DATA     BYTE      SBUF2_TX
      000000ACH   SFRSYM    DATA     BYTE      SBUF3_TX
      000000CAH   SFRSYM    DATA     BYTE      TRL2L
      000000FEH   SFRSYM    DATA     BYTE      EXADR
      000000D0H.5 SFRSYM    DATA     BIT       F0
      000000D0H.1 SFRSYM    DATA     BIT       F1
      000000D0H   SFRSYM    DATA     BYTE      PSW
      000000C0H   SFRSYM    DATA     BYTE      IRCON
      00000006H   SYMBOL    DATA     WORD      Cos
      00000005H   SYMBOL    DATA     BYTE      yy
      00000004H   SYMBOL    DATA     WORD      j
      00000006H   SYMBOL    DATA     WORD      k

      ---         MODULE    ---      ---       TIMER
      0200881EH   PUBLIC    XDATA    BYTE      RTC_fault
      0200881DH   PUBLIC    XDATA    BYTE      last_hour
      0000002EH   PUBLIC    DATA     ---       date_time
      0200881CH   PUBLIC    XDATA    BYTE      urtc_hourcnt
      01006451H   PUBLIC    CODE     ---       Time_Update
      01004289H   PUBLIC    CODE     ---       _RTC_Reset
      01004772H   PUBLIC    CODE     ---       RTC_RunFunction
      01006423H   PUBLIC    CODE     ---       RTC_init
      0100454DH   PUBLIC    CODE     ---       _I2C_RTC_Read
      01004398H   PUBLIC    CODE     ---       _I2C_RTC_Write
      010063BCH   PUBLIC    CODE     ---       RTC_Receive_Byte
      0100635FH   PUBLIC    CODE     ---       RTC_NOAck
      010062F0H   PUBLIC    CODE     ---       RTC_Send_Ack
      0100442FH   PUBLIC    CODE     ---       RTC_Ack
      010044BEH   PUBLIC    CODE     ---       _RTC_Send_Byte
      0100463BH   PUBLIC    CODE     ---       RTC_Stop
      010046B1H   PUBLIC    CODE     ---       RTC_Start
      010047C5H   PUBLIC    CODE     ---       _bcdtohex
      010047D6H   PUBLIC    CODE     ---       _hextobcd
      000000F1H   SFRSYM    DATA     BYTE      ADR_H
      00000080H   SFRSYM    DATA     BYTE      P0
      00000090H   SFRSYM    DATA     BYTE      P1
      000000A0H   SFRSYM    DATA     BYTE      P2
      000000B0H   SFRSYM    DATA     BYTE      P3
      000000F3H   SFRSYM    DATA     BYTE      ADR_L
      000000D0H.6 SFRSYM    DATA     BIT       AC
      00000094H   SFRSYM    DATA     BYTE      PAGESEL
      000000F2H   SFRSYM    DATA     BYTE      ADR_M
      000000A8H.7 SFRSYM    DATA     BIT       EA
      000000F8H   SFRSYM    DATA     BYTE      RAMMODE
      000000B7H   SFRSYM    DATA     BYTE      P0MDOUT
      000000BCH   SFRSYM    DATA     BYTE      P1MDOUT
      000000A8H   SFRSYM    DATA     BYTE      IEN0
      000000BDH   SFRSYM    DATA     BYTE      P2MDOUT
      000000B8H   SFRSYM    DATA     BYTE      IEN1
      000000BEH   SFRSYM    DATA     BYTE      P3MDOUT
      0000009AH   SFRSYM    DATA     BYTE      IEN2
      000000F8H.4 SFRSYM    DATA     BIT       APP_ACK
      000000A0H.1 SFRSYM    DATA     BIT       P2_1
LX51 LINKER/LOCATER V4.58                                                             08/27/2019  16:41:25  PAGE 86


      000000F4H   SFRSYM    DATA     BYTE      ADR_INC
      000000B8H.1 SFRSYM    DATA     BIT       ECAN
      00000090H.4 SFRSYM    DATA     BIT       Medium_Speed_Valve
      000000D0H.7 SFRSYM    DATA     BIT       CY
      000000B8H.3 SFRSYM    DATA     BIT       ES2R
      000000B8H.5 SFRSYM    DATA     BIT       ES3R
      000000B8H.2 SFRSYM    DATA     BIT       ES2T
      000000B8H.4 SFRSYM    DATA     BIT       ES3T
      00000081H   SFRSYM    DATA     BYTE      SP
      000000D0H.2 SFRSYM    DATA     BIT       OV
      00000095H   SFRSYM    DATA     BYTE      D_PAGESEL
      000000F8H.7 SFRSYM    DATA     BIT       APP_REQ
      000000BFH   SFRSYM    DATA     BYTE      IRCON2
      000000BAH   SFRSYM    DATA     BYTE      SREL0H
      000000BBH   SFRSYM    DATA     BYTE      SREL1H
      00000087H   SFRSYM    DATA     BYTE      PCON
      000000F9H   SFRSYM    DATA     BYTE      PORTDRV
      000000AAH   SFRSYM    DATA     BYTE      SREL0L
      0000009DH   SFRSYM    DATA     BYTE      SREL1L
      00000089H   SFRSYM    DATA     BYTE      TMOD
      00000088H   SFRSYM    DATA     BYTE      TCON
      00000090H.2 SFRSYM    DATA     BIT       High_Speed_Valve
      000000FFH   SFRSYM    DATA     BYTE      EXDATA
      00000097H   SFRSYM    DATA     BYTE      SCON2R
      000000ABH   SFRSYM    DATA     BYTE      SCON3R
      000000D9H   SFRSYM    DATA     BYTE      BODE2_DIV_H
      000000AEH   SFRSYM    DATA     BYTE      BODE3_DIV_H
      00000096H   SFRSYM    DATA     BYTE      SCON2T
      000000A7H   SFRSYM    DATA     BYTE      SCON3T
      000000E7H   SFRSYM    DATA     BYTE      BODE2_DIV_L
      00000088H.1 SFRSYM    DATA     BIT       IE0
      000000AFH   SFRSYM    DATA     BYTE      BODE3_DIV_L
      00000088H.3 SFRSYM    DATA     BIT       IE1
      000000C9H   SFRSYM    DATA     BYTE      MUX_SEL
      000000F0H   SFRSYM    DATA     BYTE      B
      000000E0H   SFRSYM    DATA     BYTE      ACC
      0000008FH   SFRSYM    DATA     BYTE      CAN_CR
      000000A8H.4 SFRSYM    DATA     BIT       ES0
      000000A9H   SFRSYM    DATA     BYTE      IP0
      000000A8H.1 SFRSYM    DATA     BIT       ET0
      000000B9H   SFRSYM    DATA     BYTE      IP1
      000000A8H.3 SFRSYM    DATA     BIT       ET1
      00000088H.5 SFRSYM    DATA     BIT       TF0
      000000FDH   SFRSYM    DATA     BYTE      DATA0
      000000A8H.5 SFRSYM    DATA     BIT       ET2
      00000098H   SFRSYM    DATA     BIT       RI0
      00000088H.7 SFRSYM    DATA     BIT       TF1
      000000E8H   SFRSYM    DATA     BYTE      CAN_ET
      000000FCH   SFRSYM    DATA     BYTE      DATA1
      000000C0H.6 SFRSYM    DATA     BIT       TF2
      0000008CH   SFRSYM    DATA     BYTE      TH0
      000000FBH   SFRSYM    DATA     BYTE      DATA2
      000000A8H   SFRSYM    DATA     BIT       EX0
      00000098H.1 SFRSYM    DATA     BIT       TI0
      0000008DH   SFRSYM    DATA     BYTE      TH1
      00000088H   SFRSYM    DATA     BIT       IT0
      00000091H   SFRSYM    DATA     BYTE      CAN_IR
      000000FAH   SFRSYM    DATA     BYTE      DATA3
      000000CDH   SFRSYM    DATA     BYTE      TH2
      000000A8H.2 SFRSYM    DATA     BIT       EX1
      00000088H.2 SFRSYM    DATA     BIT       IT1
      000000D0H   SFRSYM    DATA     BIT       P
      000000A0H.2 SFRSYM    DATA     BIT       KEY1_Vin_F
      0000008AH   SFRSYM    DATA     BYTE      TL0
      0000008BH   SFRSYM    DATA     BYTE      TL1
LX51 LINKER/LOCATER V4.58                                                             08/27/2019  16:41:25  PAGE 87


      000000CCH   SFRSYM    DATA     BYTE      TL2
      000000F8H.6 SFRSYM    DATA     BIT       APP_EN
      000000D0H.3 SFRSYM    DATA     BIT       RS0
      000000D0H.4 SFRSYM    DATA     BIT       RS1
      00000088H.4 SFRSYM    DATA     BIT       TR0
      00000093H   SFRSYM    DATA     BYTE      DPC
      00000088H.6 SFRSYM    DATA     BIT       TR1
      000000E5H   SFRSYM    DATA     BYTE      MAC_MODE
      000000C8H   SFRSYM    DATA     BIT       TR2
      00000083H   SFRSYM    DATA     BYTE      DPH
      00000082H   SFRSYM    DATA     BYTE      DPL
      00000099H   SFRSYM    DATA     BYTE      SBUF0
      0000009CH   SFRSYM    DATA     BYTE      SBUF1
      00000098H   SFRSYM    DATA     BYTE      SCON0
      0000009BH   SFRSYM    DATA     BYTE      SCON1
      000000B0H.3 SFRSYM    DATA     BIT       RTC_SDADATA_PORT
      000000D8H   SFRSYM    DATA     BYTE      ADCON
      00000090H.3 SFRSYM    DATA     BIT       Water_Valve
      000000C8H   SFRSYM    DATA     BYTE      T2CON
      00000090H.1 SFRSYM    DATA     BIT       Low_Speed_Valve
      000000E6H   SFRSYM    DATA     BYTE      DIV_MODE
      000000F8H.5 SFRSYM    DATA     BIT       APP_RW
      000000CBH   SFRSYM    DATA     BYTE      TRL2H
      0000009FH   SFRSYM    DATA     BYTE      SBUF2_RX
      000000ADH   SFRSYM    DATA     BYTE      SBUF3_RX
      0000008EH   SFRSYM    DATA     BYTE      CKCON
      000000B0H.2 SFRSYM    DATA     BIT       RTC_SCLDATA_PORT
      0000009EH   SFRSYM    DATA     BYTE      SBUF2_TX
      000000ACH   SFRSYM    DATA     BYTE      SBUF3_TX
      000000CAH   SFRSYM    DATA     BYTE      TRL2L
      000000FEH   SFRSYM    DATA     BYTE      EXADR
      000000D0H.5 SFRSYM    DATA     BIT       F0
      000000D0H.1 SFRSYM    DATA     BIT       F1
      000000D0H   SFRSYM    DATA     BYTE      PSW
      000000C0H   SFRSYM    DATA     BYTE      IRCON
      01001653H   SYMBOL    CONST    ---       _?ix1000

      010047D6H   BLOCK     CODE     ---       LVL=0
      010047D6H   LINE      ---      ---       #14
      010047D6H   LINE      ---      ---       #15
      00000007H   SYMBOL    DATA     BYTE      number
      010047D6H   BLOCK     CODE     NEAR LAB  LVL=1
      010047D6H   LINE      ---      ---       #18
      010047DBH   LINE      ---      ---       #19
      010047DFH   LINE      ---      ---       #20
      010047E6H   LINE      ---      ---       #21
      010047E8H   LINE      ---      ---       #22
      010047E9H   LINE      ---      ---       #23
      00000006H   SYMBOL    DATA     BYTE      hex
      ---         BLOCKEND  CODE     ---       LVL=1
      ---         BLOCKEND  CODE     ---       LVL=0

      010047C5H   BLOCK     CODE     ---       LVL=0
      010047C5H   LINE      ---      ---       #33
      010047C5H   LINE      ---      ---       #34
      00000007H   SYMBOL    DATA     BYTE      number
      010047C5H   BLOCK     CODE     NEAR LAB  LVL=1
      010047C5H   LINE      ---      ---       #37
      010047C8H   LINE      ---      ---       #38
      010047CBH   LINE      ---      ---       #40
      010047D0H   LINE      ---      ---       #41
      010047D3H   LINE      ---      ---       #42
      010047D4H   LINE      ---      ---       #43
      010047D5H   LINE      ---      ---       #44
      00000006H   SYMBOL    DATA     BYTE      bcd
LX51 LINKER/LOCATER V4.58                                                             08/27/2019  16:41:25  PAGE 88


      ---         BLOCKEND  CODE     ---       LVL=1
      ---         BLOCKEND  CODE     ---       LVL=0

      010046B1H   BLOCK     CODE     ---       LVL=0
      010046B1H   LINE      ---      ---       #54
      010046B1H   LINE      ---      ---       #55
      010046B1H   LINE      ---      ---       #56
      010046B4H   BLOCK     CODE     NEAR LAB  LVL=1
      020085E0H   SYMBOL    XDATA    BYTE      bus_ticks
      020085E0H   SYMBOL    XDATA    BYTE      bus_ticks
      020085E0H   SYMBOL    XDATA    BYTE      bus_ticks
      020085E0H   SYMBOL    XDATA    BYTE      bus_ticks
      020085E0H   SYMBOL    XDATA    BYTE      bus_ticks
      020085E0H   SYMBOL    XDATA    BYTE      bus_ticks
      020085E0H   SYMBOL    XDATA    BYTE      bus_ticks
      020085E0H   SYMBOL    XDATA    BYTE      bus_ticks
      020085E0H   SYMBOL    XDATA    BYTE      bus_ticks
      010046C4H   LINE      ---      ---       #57
      010046C4H   LINE      CODE     ---       #57
      010046C9H   BLOCK     CODE     NEAR LAB  LVL=1
      020085E0H   SYMBOL    XDATA    BYTE      bus_ticks
      020085E0H   SYMBOL    XDATA    BYTE      bus_ticks
      020085E0H   SYMBOL    XDATA    BYTE      bus_ticks
      020085E0H   SYMBOL    XDATA    BYTE      bus_ticks
      020085E0H   SYMBOL    XDATA    BYTE      bus_ticks
      020085E0H   SYMBOL    XDATA    BYTE      bus_ticks
      020085E0H   SYMBOL    XDATA    BYTE      bus_ticks
      020085E0H   SYMBOL    XDATA    BYTE      bus_ticks
      010046D9H   LINE      ---      ---       #60
      010046D9H   LINE      CODE     ---       #60
      010046DCH   BLOCK     CODE     NEAR LAB  LVL=1
      020085E0H   SYMBOL    XDATA    BYTE      bus_ticks
      020085E0H   SYMBOL    XDATA    BYTE      bus_ticks
      020085E0H   SYMBOL    XDATA    BYTE      bus_ticks
      020085E0H   SYMBOL    XDATA    BYTE      bus_ticks
      020085E0H   SYMBOL    XDATA    BYTE      bus_ticks
      020085E0H   SYMBOL    XDATA    BYTE      bus_ticks
      020085E0H   SYMBOL    XDATA    BYTE      bus_ticks
      010046ECH   LINE      ---      ---       #61
      010046ECH   LINE      CODE     ---       #61
      010046ECH   BLOCK     CODE     NEAR LAB  LVL=1
      020085E0H   SYMBOL    XDATA    BYTE      bus_ticks
      010046FCH   LINE      ---      ---       #62
      010046FCH   LINE      CODE     ---       #62
      010046FEH   BLOCK     CODE     NEAR LAB  LVL=1
      020085E0H   SYMBOL    XDATA    BYTE      bus_ticks
      020085E0H   SYMBOL    XDATA    BYTE      bus_ticks
      020085E0H   SYMBOL    XDATA    BYTE      bus_ticks
      020085E0H   SYMBOL    XDATA    BYTE      bus_ticks
      020085E0H   SYMBOL    XDATA    BYTE      bus_ticks
      020085E0H   SYMBOL    XDATA    BYTE      bus_ticks
      0100470EH   LINE      ---      ---       #65
      0100470EH   LINE      CODE     ---       #65
      01004713H   BLOCK     CODE     NEAR LAB  LVL=1
      020085E0H   SYMBOL    XDATA    BYTE      bus_ticks
      020085E0H   SYMBOL    XDATA    BYTE      bus_ticks
      020085E0H   SYMBOL    XDATA    BYTE      bus_ticks
      020085E0H   SYMBOL    XDATA    BYTE      bus_ticks
      020085E0H   SYMBOL    XDATA    BYTE      bus_ticks
      01004723H   LINE      ---      ---       #66
      01004723H   LINE      CODE     ---       #66
      01004728H   BLOCK     CODE     NEAR LAB  LVL=1
      020085E0H   SYMBOL    XDATA    BYTE      bus_ticks
      020085E0H   SYMBOL    XDATA    BYTE      bus_ticks
      020085E0H   SYMBOL    XDATA    BYTE      bus_ticks
LX51 LINKER/LOCATER V4.58                                                             08/27/2019  16:41:25  PAGE 89


      020085E0H   SYMBOL    XDATA    BYTE      bus_ticks
      01004738H   LINE      ---      ---       #68
      01004738H   LINE      CODE     ---       #68
      0100473AH   BLOCK     CODE     NEAR LAB  LVL=1
      020085E0H   SYMBOL    XDATA    BYTE      bus_ticks
      020085E0H   SYMBOL    XDATA    BYTE      bus_ticks
      020085E0H   SYMBOL    XDATA    BYTE      bus_ticks
      0100474AH   LINE      ---      ---       #69
      0100474AH   LINE      CODE     ---       #69
      0100474FH   BLOCK     CODE     NEAR LAB  LVL=1
      020085E0H   SYMBOL    XDATA    BYTE      bus_ticks
      020085E0H   SYMBOL    XDATA    BYTE      bus_ticks
      0100475FH   LINE      ---      ---       #70
      0100475FH   LINE      CODE     ---       #70
      01004761H   BLOCK     CODE     NEAR LAB  LVL=1
      020085E0H   SYMBOL    XDATA    BYTE      bus_ticks
      01004771H   LINE      ---      ---       #71
      01004771H   LINE      CODE     ---       #71
      ---         BLOCKEND  CODE     ---       LVL=0

      0100463BH   BLOCK     CODE     ---       LVL=0
      0100463BH   LINE      ---      ---       #76
      0100463BH   LINE      ---      ---       #77
      0100463BH   LINE      ---      ---       #79
      0100463DH   BLOCK     CODE     NEAR LAB  LVL=1
      020085E0H   SYMBOL    XDATA    BYTE      bus_ticks
      020085E0H   SYMBOL    XDATA    BYTE      bus_ticks
      020085E0H   SYMBOL    XDATA    BYTE      bus_ticks
      020085E0H   SYMBOL    XDATA    BYTE      bus_ticks
      020085E0H   SYMBOL    XDATA    BYTE      bus_ticks
      020085E0H   SYMBOL    XDATA    BYTE      bus_ticks
      0100464DH   LINE      ---      ---       #80
      0100464DH   LINE      CODE     ---       #80
      01004652H   BLOCK     CODE     NEAR LAB  LVL=1
      020085E0H   SYMBOL    XDATA    BYTE      bus_ticks
      020085E0H   SYMBOL    XDATA    BYTE      bus_ticks
      020085E0H   SYMBOL    XDATA    BYTE      bus_ticks
      020085E0H   SYMBOL    XDATA    BYTE      bus_ticks
      020085E0H   SYMBOL    XDATA    BYTE      bus_ticks
      01004662H   LINE      ---      ---       #82
      01004662H   LINE      CODE     ---       #82
      01004664H   BLOCK     CODE     NEAR LAB  LVL=1
      020085E0H   SYMBOL    XDATA    BYTE      bus_ticks
      020085E0H   SYMBOL    XDATA    BYTE      bus_ticks
      020085E0H   SYMBOL    XDATA    BYTE      bus_ticks
      020085E0H   SYMBOL    XDATA    BYTE      bus_ticks
      01004674H   LINE      ---      ---       #83
      01004674H   LINE      CODE     ---       #83
      01004679H   BLOCK     CODE     NEAR LAB  LVL=1
      020085E0H   SYMBOL    XDATA    BYTE      bus_ticks
      020085E0H   SYMBOL    XDATA    BYTE      bus_ticks
      020085E0H   SYMBOL    XDATA    BYTE      bus_ticks
      01004689H   LINE      ---      ---       #84
      01004689H   LINE      CODE     ---       #84
      0100468BH   BLOCK     CODE     NEAR LAB  LVL=1
      020085E0H   SYMBOL    XDATA    BYTE      bus_ticks
      020085E0H   SYMBOL    XDATA    BYTE      bus_ticks
      0100469BH   LINE      ---      ---       #85
      0100469BH   LINE      CODE     ---       #85
      010046A0H   BLOCK     CODE     NEAR LAB  LVL=1
      020085E0H   SYMBOL    XDATA    BYTE      bus_ticks
      010046B0H   LINE      ---      ---       #87
      010046B0H   LINE      CODE     ---       #87
      ---         BLOCKEND  CODE     ---       LVL=0

LX51 LINKER/LOCATER V4.58                                                             08/27/2019  16:41:25  PAGE 90


      010044BEH   BLOCK     CODE     ---       LVL=0
      010044BEH   LINE      ---      ---       #96
      010044BEH   LINE      ---      ---       #97
      00000007H   SYMBOL    DATA     BYTE      Byte
      010044BEH   BLOCK     CODE     NEAR LAB  LVL=1
      010044BEH   LINE      ---      ---       #98
      010044BEH   LINE      ---      ---       #100
      00000006H   SYMBOL    DATA     BYTE      i
      010044C0H   BLOCK     CODE     NEAR LAB  LVL=2
      020085E0H   SYMBOL    XDATA    BYTE      bus_ticks
      020085E0H   SYMBOL    XDATA    BYTE      bus_ticks
      010044D0H   LINE      ---      ---       #101
      010044D0H   LINE      CODE     ---       #101
      010044D5H   BLOCK     CODE     NEAR LAB  LVL=2
      020085E0H   SYMBOL    XDATA    BYTE      bus_ticks
      010044E5H   LINE      ---      ---       #102
      010044E7H   LINE      ---      ---       #103
      010044E7H   LINE      ---      ---       #104
      010044EBH   LINE      ---      ---       #105
      010044EBH   LINE      ---      ---       #106
      010044EBH   LINE      CODE     ---       #106
      010044F0H   BLOCK     CODE     NEAR LAB  LVL=2
      020085E0H   SYMBOL    XDATA    BYTE      bus_ticks
      020085E0H   SYMBOL    XDATA    BYTE      bus_ticks
      01004502H   LINE      ---      ---       #109
      01004502H   LINE      ---      ---       #110
      01004502H   LINE      CODE     ---       #110
      01004507H   BLOCK     CODE     NEAR LAB  LVL=2
      020085E0H   SYMBOL    XDATA    BYTE      bus_ticks
      01004517H   LINE      ---      ---       #111
      01004517H   LINE      ---      ---       #112
      01004517H   LINE      CODE     ---       #112
      01004519H   BLOCK     CODE     NEAR LAB  LVL=2
      020085E0H   SYMBOL    XDATA    BYTE      bus_ticks
      020085E0H   SYMBOL    XDATA    BYTE      bus_ticks
      01004529H   LINE      ---      ---       #113
      01004529H   LINE      CODE     ---       #113
      0100452BH   BLOCK     CODE     NEAR LAB  LVL=2
      020085E0H   SYMBOL    XDATA    BYTE      bus_ticks
      0100453BH   LINE      ---      ---       #114
      0100453FH   LINE      ---      ---       #115
      01004544H   LINE      ---      ---       #116
      01004544H   LINE      CODE     ---       #116
      ---         BLOCKEND  CODE     ---       LVL=1
      ---         BLOCKEND  CODE     ---       LVL=0

      01004423H   BLOCK     CODE     ---       LVL=0
      0100442FH   LINE      ---      ---       #125
      0100442FH   LINE      ---      ---       #126
      0100442FH   BLOCK     CODE     NEAR LAB  LVL=1
      0100442FH   LINE      ---      ---       #127
      01004432H   LINE      ---      ---       #130
      00000006H   SYMBOL    DATA     WORD      timeout
      00000005H   SYMBOL    DATA     BYTE      temp
      01004434H   BLOCK     CODE     NEAR LAB  LVL=2
      020085E0H   SYMBOL    XDATA    BYTE      bus_ticks
      020085E0H   SYMBOL    XDATA    BYTE      bus_ticks
      020085E0H   SYMBOL    XDATA    BYTE      bus_ticks
      020085E0H   SYMBOL    XDATA    BYTE      bus_ticks
      020085E0H   SYMBOL    XDATA    BYTE      bus_ticks
      01004444H   LINE      ---      ---       #131
      01004444H   LINE      CODE     ---       #131
      01004447H   BLOCK     CODE     NEAR LAB  LVL=2
      020085E0H   SYMBOL    XDATA    BYTE      bus_ticks
      020085E0H   SYMBOL    XDATA    BYTE      bus_ticks
LX51 LINKER/LOCATER V4.58                                                             08/27/2019  16:41:25  PAGE 91


      020085E0H   SYMBOL    XDATA    BYTE      bus_ticks
      020085E0H   SYMBOL    XDATA    BYTE      bus_ticks
      01004457H   LINE      ---      ---       #133
      01004460H   LINE      ---      ---       #134
      01004460H   LINE      ---      ---       #135
      01004465H   LINE      ---      ---       #136
      01004469H   LINE      ---      ---       #137
      0100446BH   LINE      ---      ---       #138
      0100446DH   LINE      ---      ---       #140
      01004472H   LINE      ---      ---       #141
      01004474H   LINE      ---      ---       #143
      01004474H   LINE      CODE     ---       #143
      01004476H   BLOCK     CODE     NEAR LAB  LVL=2
      020085E0H   SYMBOL    XDATA    BYTE      bus_ticks
      020085E0H   SYMBOL    XDATA    BYTE      bus_ticks
      020085E0H   SYMBOL    XDATA    BYTE      bus_ticks
      01004486H   LINE      ---      ---       #144
      01004486H   LINE      CODE     ---       #144
      01004488H   BLOCK     CODE     NEAR LAB  LVL=2
      020085E0H   SYMBOL    XDATA    BYTE      bus_ticks
      020085E0H   SYMBOL    XDATA    BYTE      bus_ticks
      01004498H   LINE      ---      ---       #146
      01004498H   LINE      CODE     ---       #146
      01004498H   BLOCK     CODE     NEAR LAB  LVL=2
      020085E0H   SYMBOL    XDATA    BYTE      bus_ticks
      010044A8H   LINE      ---      ---       #147
      010044A8H   LINE      CODE     ---       #147
      010044ADH   BLOCK     CODE     NEAR LAB  LVL=2
      020085E0H   SYMBOL    XDATA    BYTE      bus_ticks
      010044BDH   LINE      ---      ---       #148
      010044BDH   LINE      CODE     ---       #148
      ---         BLOCKEND  CODE     ---       LVL=1
      ---         BLOCKEND  CODE     ---       LVL=0

      010062F0H   BLOCK     CODE     ---       LVL=0
      010062F0H   LINE      ---      ---       #157
      010062F0H   LINE      ---      ---       #158
      010062F0H   LINE      ---      ---       #159
      010062F2H   BLOCK     CODE     NEAR LAB  LVL=1
      020085DBH   SYMBOL    XDATA    BYTE      bus_ticks
      020085DBH   SYMBOL    XDATA    BYTE      bus_ticks
      020085DBH   SYMBOL    XDATA    BYTE      bus_ticks
      020085DBH   SYMBOL    XDATA    BYTE      bus_ticks
      020085DBH   SYMBOL    XDATA    BYTE      bus_ticks
      01006302H   LINE      ---      ---       #160
      01006302H   LINE      CODE     ---       #160
      01006302H   BLOCK     CODE     NEAR LAB  LVL=1
      020085DBH   SYMBOL    XDATA    BYTE      bus_ticks
      01006312H   LINE      ---      ---       #161
      01006312H   LINE      CODE     ---       #161
      01006317H   BLOCK     CODE     NEAR LAB  LVL=1
      020085DBH   SYMBOL    XDATA    BYTE      bus_ticks
      020085DBH   SYMBOL    XDATA    BYTE      bus_ticks
      020085DBH   SYMBOL    XDATA    BYTE      bus_ticks
      020085DBH   SYMBOL    XDATA    BYTE      bus_ticks
      01006327H   LINE      ---      ---       #163
      01006327H   LINE      CODE     ---       #163
      01006329H   BLOCK     CODE     NEAR LAB  LVL=1
      020085DBH   SYMBOL    XDATA    BYTE      bus_ticks
      020085DBH   SYMBOL    XDATA    BYTE      bus_ticks
      020085DBH   SYMBOL    XDATA    BYTE      bus_ticks
      01006339H   LINE      ---      ---       #164
      01006339H   LINE      CODE     ---       #164
      0100633BH   BLOCK     CODE     NEAR LAB  LVL=1
      020085DBH   SYMBOL    XDATA    BYTE      bus_ticks
LX51 LINKER/LOCATER V4.58                                                             08/27/2019  16:41:25  PAGE 92


      020085DBH   SYMBOL    XDATA    BYTE      bus_ticks
      0100634BH   LINE      ---      ---       #165
      0100634BH   LINE      CODE     ---       #165
      0100634EH   BLOCK     CODE     NEAR LAB  LVL=1
      020085DBH   SYMBOL    XDATA    BYTE      bus_ticks
      0100635EH   LINE      ---      ---       #166
      0100635EH   LINE      CODE     ---       #166
      ---         BLOCKEND  CODE     ---       LVL=0

      0100635FH   BLOCK     CODE     ---       LVL=0
      0100635FH   LINE      ---      ---       #176
      0100635FH   LINE      ---      ---       #177
      0100635FH   LINE      ---      ---       #178
      01006362H   BLOCK     CODE     NEAR LAB  LVL=1
      020085DBH   SYMBOL    XDATA    BYTE      bus_ticks
      020085DBH   SYMBOL    XDATA    BYTE      bus_ticks
      020085DBH   SYMBOL    XDATA    BYTE      bus_ticks
      020085DBH   SYMBOL    XDATA    BYTE      bus_ticks
      01006372H   LINE      ---      ---       #179
      01006372H   LINE      CODE     ---       #179
      01006374H   BLOCK     CODE     NEAR LAB  LVL=1
      020085DBH   SYMBOL    XDATA    BYTE      bus_ticks
      020085DBH   SYMBOL    XDATA    BYTE      bus_ticks
      020085DBH   SYMBOL    XDATA    BYTE      bus_ticks
      01006384H   LINE      ---      ---       #180
      01006384H   LINE      CODE     ---       #180
      01006386H   BLOCK     CODE     NEAR LAB  LVL=1
      020085DBH   SYMBOL    XDATA    BYTE      bus_ticks
      020085DBH   SYMBOL    XDATA    BYTE      bus_ticks
      01006396H   LINE      ---      ---       #182
      01006396H   LINE      CODE     ---       #182
      01006396H   BLOCK     CODE     NEAR LAB  LVL=1
      020085DBH   SYMBOL    XDATA    BYTE      bus_ticks
      010063A6H   LINE      ---      ---       #183
      010063A6H   LINE      CODE     ---       #183
      010063ABH   BLOCK     CODE     NEAR LAB  LVL=1
      020085DBH   SYMBOL    XDATA    BYTE      bus_ticks
      010063BBH   LINE      ---      ---       #184
      010063BBH   LINE      CODE     ---       #184
      ---         BLOCKEND  CODE     ---       LVL=0

      010063BCH   BLOCK     CODE     ---       LVL=0
      010063BCH   LINE      ---      ---       #194
      010063BCH   LINE      ---      ---       #195
      010063BCH   BLOCK     CODE     NEAR LAB  LVL=1
      010063BCH   LINE      ---      ---       #200
      010063BEH   LINE      ---      ---       #201
      00000007H   SYMBOL    DATA     BYTE      R_word
      00000006H   SYMBOL    DATA     BYTE      j
      00000005H   SYMBOL    DATA     BYTE      temp
      010063C1H   BLOCK     CODE     NEAR LAB  LVL=2
      020085DBH   SYMBOL    XDATA    BYTE      bus_ticks
      020085DBH   SYMBOL    XDATA    BYTE      bus_ticks
      010063D1H   LINE      ---      ---       #203
      010063D3H   LINE      ---      ---       #204
      010063D3H   LINE      ---      ---       #206
      010063D3H   LINE      CODE     ---       #206
      010063D5H   BLOCK     CODE     NEAR LAB  LVL=2
      020085DBH   SYMBOL    XDATA    BYTE      bus_ticks
      020085DBH   SYMBOL    XDATA    BYTE      bus_ticks
      010063E5H   LINE      ---      ---       #207
      010063EAH   LINE      ---      ---       #209
      010063EEH   LINE      ---      ---       #210
      010063F1H   LINE      ---      ---       #211
      010063F1H   LINE      ---      ---       #212
LX51 LINKER/LOCATER V4.58                                                             08/27/2019  16:41:25  PAGE 93


      010063F5H   LINE      ---      ---       #213
      010063F7H   LINE      ---      ---       #215
      010063F7H   LINE      ---      ---       #216
      010063FBH   LINE      ---      ---       #217
      010063FBH   LINE      ---      ---       #218
      010063FBH   LINE      CODE     ---       #218
      010063FBH   BLOCK     CODE     NEAR LAB  LVL=2
      020085DBH   SYMBOL    XDATA    BYTE      bus_ticks
      0100640BH   LINE      ---      ---       #220
      0100640BH   LINE      CODE     ---       #220
      0100640DH   BLOCK     CODE     NEAR LAB  LVL=2
      020085DBH   SYMBOL    XDATA    BYTE      bus_ticks
      0100641DH   LINE      ---      ---       #221
      01006422H   LINE      ---      ---       #223
      01006422H   LINE      ---      ---       #224
      01006422H   LINE      CODE     ---       #224
      ---         BLOCKEND  CODE     ---       LVL=1
      ---         BLOCKEND  CODE     ---       LVL=0

      01004398H   BLOCK     CODE     ---       LVL=0
      01004398H   LINE      ---      ---       #237
      010043A5H   LINE      ---      ---       #238
      00000004H   SYMBOL    DATA     BYTE      W_addr
      020085DCH   SYMBOL    XDATA    ---       word
      010043A5H   BLOCK     CODE     NEAR LAB  LVL=1
      010043A5H   LINE      ---      ---       #243
      010043CAH   LINE      ---      ---       #244
      010043CAH   LINE      ---      ---       #245
      010043CAH   LINE      ---      ---       #246
      010043CAH   LINE      ---      ---       #247
      010043CAH   LINE      ---      ---       #248
      010043D2H   LINE      ---      ---       #249
      010043DAH   LINE      ---      ---       #250
      010043E2H   LINE      ---      ---       #251
      010043E2H   LINE      ---      ---       #252
      010043E8H   LINE      ---      ---       #253
      010043E8H   LINE      ---      ---       #255
      010043EAH   LINE      ---      ---       #263
      010043F6H   LINE      ---      ---       #264
      010043F6H   LINE      ---      ---       #265
      0100440EH   LINE      ---      ---       #266
      01004410H   LINE      ---      ---       #267
      01004412H   LINE      ---      ---       #268
      01004415H   LINE      ---      ---       #269
      01004417H   LINE      ---      ---       #272
      0100441DH   LINE      ---      ---       #273
      01004422H   LINE      ---      ---       #274
      020085DFH   SYMBOL    XDATA    BYTE      number
      00000004H   SYMBOL    DATA     BYTE      i
      00000003H   SYMBOL    DATA     BYTE      rtc_temp
      ---         BLOCKEND  CODE     ---       LVL=1
      ---         BLOCKEND  CODE     ---       LVL=0

      01004545H   BLOCK     CODE     ---       LVL=0
      0100454DH   LINE      ---      ---       #284
      0100455AH   LINE      ---      ---       #285
      00000004H   SYMBOL    DATA     BYTE      R_addr
      020085D6H   SYMBOL    XDATA    ---       RTC_buffer
      0100455AH   BLOCK     CODE     NEAR LAB  LVL=1
      0100455AH   LINE      ---      ---       #290
      0100457FH   LINE      ---      ---       #291
      0100457FH   LINE      ---      ---       #292
      0100457FH   LINE      ---      ---       #293
      0100457FH   LINE      ---      ---       #294
      0100457FH   LINE      ---      ---       #295
LX51 LINKER/LOCATER V4.58                                                             08/27/2019  16:41:25  PAGE 94


      01004587H   LINE      ---      ---       #296
      0100458FH   LINE      ---      ---       #297
      01004597H   LINE      ---      ---       #298
      01004597H   LINE      ---      ---       #299
      0100459DH   LINE      ---      ---       #300
      0100459DH   LINE      ---      ---       #303
      0100459FH   LINE      ---      ---       #311
      010045A1H   LINE      ---      ---       #313
      010045A5H   LINE      ---      ---       #314
      010045A7H   LINE      ---      ---       #316
      010045B4H   LINE      ---      ---       #317
      010045B4H   LINE      ---      ---       #318
      010045BCH   LINE      ---      ---       #320
      010045C2H   LINE      ---      ---       #321
      010045C2H   LINE      ---      ---       #322
      010045C9H   LINE      ---      ---       #323
      010045C9H   LINE      ---      ---       #324
      010045D2H   LINE      ---      ---       #325
      010045D2H   LINE      ---      ---       #326
      010045D9H   LINE      ---      ---       #327
      010045D9H   LINE      ---      ---       #328
      010045DDH   LINE      ---      ---       #329
      010045DDH   LINE      ---      ---       #330
      010045E4H   LINE      ---      ---       #331
      010045E4H   LINE      ---      ---       #332
      010045E8H   LINE      ---      ---       #333
      010045E8H   LINE      ---      ---       #334
      010045EFH   LINE      ---      ---       #335
      010045EFH   LINE      ---      ---       #336
      010045F8H   LINE      ---      ---       #337
      0100460CH   LINE      ---      ---       #339
      0100460FH   LINE      ---      ---       #340
      01004612H   LINE      ---      ---       #342
      0100461AH   LINE      ---      ---       #343
      0100461EH   LINE      ---      ---       #344
      01004622H   LINE      ---      ---       #345
      01004638H   LINE      ---      ---       #346
      020085D9H   SYMBOL    XDATA    BYTE      rtc_temp
      020085DAH   SYMBOL    XDATA    BYTE      number
      00000004H   SYMBOL    DATA     BYTE      i
      ---         BLOCKEND  CODE     ---       LVL=1
      ---         BLOCKEND  CODE     ---       LVL=0

      01006423H   BLOCK     CODE     ---       LVL=0
      01006423H   LINE      ---      ---       #358
      01006423H   LINE      ---      ---       #359
      01006423H   BLOCK     CODE     NEAR LAB  LVL=1
      01006423H   LINE      ---      ---       #362
      01006429H   LINE      ---      ---       #363
      01006434H   LINE      ---      ---       #364
      0100643BH   LINE      ---      ---       #366
      01006440H   LINE      ---      ---       #367
      0100644AH   LINE      ---      ---       #368
      020085D2H   SYMBOL    XDATA    BYTE      dat
      ---         BLOCKEND  CODE     ---       LVL=1
      ---         BLOCKEND  CODE     ---       LVL=0

      01004772H   BLOCK     CODE     ---       LVL=0
      01004772H   LINE      ---      ---       #382
      01004772H   LINE      ---      ---       #383
      01004772H   LINE      ---      ---       #384
      01004774H   LINE      ---      ---       #385
      0100477BH   LINE      ---      ---       #386
      0100477BH   LINE      ---      ---       #387
      0100477EH   LINE      ---      ---       #388
LX51 LINKER/LOCATER V4.58                                                             08/27/2019  16:41:25  PAGE 95


      01004781H   LINE      ---      ---       #389
      01004784H   LINE      ---      ---       #390
      01004787H   LINE      ---      ---       #391
      0100478AH   LINE      ---      ---       #392
      0100478DH   LINE      ---      ---       #393
      01004790H   LINE      ---      ---       #394
      0100479AH   LINE      ---      ---       #395
      010047A1H   LINE      ---      ---       #396
      010047A3H   LINE      ---      ---       #397
      010047A3H   LINE      ---      ---       #400
      010047B8H   LINE      ---      ---       #401
      010047BFH   LINE      ---      ---       #403
      010047C4H   LINE      ---      ---       #404
      ---         BLOCKEND  ---      ---       LVL=0

      01004289H   BLOCK     CODE     ---       LVL=0
      01004289H   LINE      ---      ---       #405
      01004294H   LINE      ---      ---       #406
      020085D2H   SYMBOL    XDATA    ---       buf
      01004294H   BLOCK     CODE     NEAR LAB  LVL=1
      01004294H   LINE      ---      ---       #407
      010042A7H   LINE      ---      ---       #408
      010042D9H   LINE      ---      ---       #409
      010042D9H   LINE      ---      ---       #410
      010042F0H   LINE      ---      ---       #411
      01004307H   LINE      ---      ---       #412
      0100431EH   LINE      ---      ---       #413
      01004349H   LINE      ---      ---       #414
      01004351H   LINE      ---      ---       #415
      0100435AH   LINE      ---      ---       #416
      01004371H   LINE      ---      ---       #417
      01004388H   LINE      ---      ---       #418
      0100438DH   LINE      ---      ---       #419
      01004397H   LINE      ---      ---       #421
      01004397H   LINE      ---      ---       #422
      020085D5H   SYMBOL    XDATA    ---       datetime_set
      ---         BLOCKEND  CODE     ---       LVL=1
      ---         BLOCKEND  CODE     ---       LVL=0

      01006451H   BLOCK     CODE     ---       LVL=0
      01006451H   LINE      ---      ---       #433
      01006451H   LINE      ---      ---       #434
      01006451H   BLOCK     CODE     NEAR LAB  LVL=1
      01006451H   LINE      ---      ---       #436
      01006454H   LINE      ---      ---       #437
      0100645AH   LINE      ---      ---       #438
      0100645EH   LINE      ---      ---       #439
      01006464H   LINE      ---      ---       #440
      0100646AH   LINE      ---      ---       #441
      01006470H   LINE      ---      ---       #442
      01006474H   LINE      ---      ---       #443
      01006478H   LINE      ---      ---       #469
      0100648BH   LINE      ---      ---       #470
      0100649FH   LINE      ---      ---       #471
      010064AFH   LINE      ---      ---       #472
      010064BFH   LINE      ---      ---       #473
      010064D4H   LINE      ---      ---       #474
      010064E9H   LINE      ---      ---       #476
      010064FAH   LINE      ---      ---       #477
      0100650AH   LINE      ---      ---       #478
      0100651AH   LINE      ---      ---       #479
      01006527H   LINE      ---      ---       #480
      01006537H   LINE      ---      ---       #481
      01006547H   LINE      ---      ---       #482
      01006557H   LINE      ---      ---       #483
LX51 LINKER/LOCATER V4.58                                                             08/27/2019  16:41:25  PAGE 96


      020085D2H   SYMBOL    XDATA    WORD      RTC_Hour_D
      020085D4H   SYMBOL    XDATA    WORD      RTC_Min_D
      ---         BLOCKEND  CODE     ---       LVL=1
      ---         BLOCKEND  CODE     ---       LVL=0

      ---         MODULE    ---      ---       VCNL4000
      02008810H   PUBLIC    XDATA    ---       VCNL4200_Register
      0200880EH   PUBLIC    XDATA    WORD      VCNL4200_ALS_Result
      0200880CH   PUBLIC    XDATA    WORD      VCNL4200_PROX_Result
      01006594H   PUBLIC    CODE     ---       _VCNL4200_MeasurementResult
      0100169DH   PUBLIC    CODE     ---       VCNL4200_Init
      010016FDH   PUBLIC    CODE     ---       _VCNL4200_WriteOneWords
      01001780H   PUBLIC    CODE     ---       _VCNL4200_ReadOneWords
      01006571H   PUBLIC    CODE     ---       I2C_ReadByte
      01001745H   PUBLIC    CODE     ---       _I2C_SendByte
      01001729H   PUBLIC    CODE     ---       I2C_WaitAck
      010017DDH   PUBLIC    CODE     ---       I2C_Ack
      0100179DH   PUBLIC    CODE     ---       I2C_Stop
      010017B2H   PUBLIC    CODE     ---       I2C_Start
      0100177BH   PUBLIC    CODE     ---       I2C_delay
      010017ECH   PUBLIC    CODE     ---       I2C_Initial
      000000F1H   SFRSYM    DATA     BYTE      ADR_H
      00000080H   SFRSYM    DATA     BYTE      P0
      00000090H   SFRSYM    DATA     BYTE      P1
      000000A0H   SFRSYM    DATA     BYTE      P2
      000000B0H   SFRSYM    DATA     BYTE      P3
      000000F3H   SFRSYM    DATA     BYTE      ADR_L
      000000D0H.6 SFRSYM    DATA     BIT       AC
      00000094H   SFRSYM    DATA     BYTE      PAGESEL
      000000F2H   SFRSYM    DATA     BYTE      ADR_M
      000000A8H.7 SFRSYM    DATA     BIT       EA
      000000F8H   SFRSYM    DATA     BYTE      RAMMODE
      000000B7H   SFRSYM    DATA     BYTE      P0MDOUT
      000000BCH   SFRSYM    DATA     BYTE      P1MDOUT
      000000A8H   SFRSYM    DATA     BYTE      IEN0
      000000BDH   SFRSYM    DATA     BYTE      P2MDOUT
      000000B8H   SFRSYM    DATA     BYTE      IEN1
      000000BEH   SFRSYM    DATA     BYTE      P3MDOUT
      0000009AH   SFRSYM    DATA     BYTE      IEN2
      000000F8H.4 SFRSYM    DATA     BIT       APP_ACK
      000000A0H.1 SFRSYM    DATA     BIT       P2_1
      000000F4H   SFRSYM    DATA     BYTE      ADR_INC
      000000B8H.1 SFRSYM    DATA     BIT       ECAN
      00000090H.4 SFRSYM    DATA     BIT       Medium_Speed_Valve
      000000D0H.7 SFRSYM    DATA     BIT       CY
      000000B8H.3 SFRSYM    DATA     BIT       ES2R
      000000B8H.5 SFRSYM    DATA     BIT       ES3R
      000000B8H.2 SFRSYM    DATA     BIT       ES2T
      000000B8H.4 SFRSYM    DATA     BIT       ES3T
      00000081H   SFRSYM    DATA     BYTE      SP
      000000D0H.2 SFRSYM    DATA     BIT       OV
      00000095H   SFRSYM    DATA     BYTE      D_PAGESEL
      000000F8H.7 SFRSYM    DATA     BIT       APP_REQ
      000000BFH   SFRSYM    DATA     BYTE      IRCON2
      000000BAH   SFRSYM    DATA     BYTE      SREL0H
      000000BBH   SFRSYM    DATA     BYTE      SREL1H
      00000087H   SFRSYM    DATA     BYTE      PCON
      00000090H.6 SFRSYM    DATA     BIT       I2C_INT_PORT
      000000F9H   SFRSYM    DATA     BYTE      PORTDRV
      000000AAH   SFRSYM    DATA     BYTE      SREL0L
      0000009DH   SFRSYM    DATA     BYTE      SREL1L
      00000089H   SFRSYM    DATA     BYTE      TMOD
      00000088H   SFRSYM    DATA     BYTE      TCON
      00000090H.2 SFRSYM    DATA     BIT       High_Speed_Valve
      000000FFH   SFRSYM    DATA     BYTE      EXDATA
LX51 LINKER/LOCATER V4.58                                                             08/27/2019  16:41:25  PAGE 97


      00000097H   SFRSYM    DATA     BYTE      SCON2R
      000000ABH   SFRSYM    DATA     BYTE      SCON3R
      000000D9H   SFRSYM    DATA     BYTE      BODE2_DIV_H
      00000090H.5 SFRSYM    DATA     BIT       I2C_SDADATA_PORT
      000000AEH   SFRSYM    DATA     BYTE      BODE3_DIV_H
      00000096H   SFRSYM    DATA     BYTE      SCON2T
      000000A7H   SFRSYM    DATA     BYTE      SCON3T
      000000E7H   SFRSYM    DATA     BYTE      BODE2_DIV_L
      00000088H.1 SFRSYM    DATA     BIT       IE0
      000000AFH   SFRSYM    DATA     BYTE      BODE3_DIV_L
      00000088H.3 SFRSYM    DATA     BIT       IE1
      000000C9H   SFRSYM    DATA     BYTE      MUX_SEL
      000000F0H   SFRSYM    DATA     BYTE      B
      00000090H.7 SFRSYM    DATA     BIT       I2C_SCLDATA_PORT
      000000E0H   SFRSYM    DATA     BYTE      ACC
      0000008FH   SFRSYM    DATA     BYTE      CAN_CR
      000000A8H.4 SFRSYM    DATA     BIT       ES0
      000000A9H   SFRSYM    DATA     BYTE      IP0
      000000A8H.1 SFRSYM    DATA     BIT       ET0
      000000B9H   SFRSYM    DATA     BYTE      IP1
      000000A8H.3 SFRSYM    DATA     BIT       ET1
      00000088H.5 SFRSYM    DATA     BIT       TF0
      000000FDH   SFRSYM    DATA     BYTE      DATA0
      000000A8H.5 SFRSYM    DATA     BIT       ET2
      00000098H   SFRSYM    DATA     BIT       RI0
      00000088H.7 SFRSYM    DATA     BIT       TF1
      000000E8H   SFRSYM    DATA     BYTE      CAN_ET
      000000FCH   SFRSYM    DATA     BYTE      DATA1
      000000C0H.6 SFRSYM    DATA     BIT       TF2
      0000008CH   SFRSYM    DATA     BYTE      TH0
      000000FBH   SFRSYM    DATA     BYTE      DATA2
      000000A8H   SFRSYM    DATA     BIT       EX0
      00000098H.1 SFRSYM    DATA     BIT       TI0
      0000008DH   SFRSYM    DATA     BYTE      TH1
      00000088H   SFRSYM    DATA     BIT       IT0
      00000091H   SFRSYM    DATA     BYTE      CAN_IR
      000000FAH   SFRSYM    DATA     BYTE      DATA3
      000000CDH   SFRSYM    DATA     BYTE      TH2
      000000A8H.2 SFRSYM    DATA     BIT       EX1
      00000088H.2 SFRSYM    DATA     BIT       IT1
      000000D0H   SFRSYM    DATA     BIT       P
      000000A0H.2 SFRSYM    DATA     BIT       KEY1_Vin_F
      0000008AH   SFRSYM    DATA     BYTE      TL0
      0000008BH   SFRSYM    DATA     BYTE      TL1
      000000CCH   SFRSYM    DATA     BYTE      TL2
      000000F8H.6 SFRSYM    DATA     BIT       APP_EN
      000000D0H.3 SFRSYM    DATA     BIT       RS0
      000000D0H.4 SFRSYM    DATA     BIT       RS1
      00000088H.4 SFRSYM    DATA     BIT       TR0
      00000093H   SFRSYM    DATA     BYTE      DPC
      00000088H.6 SFRSYM    DATA     BIT       TR1
      000000E5H   SFRSYM    DATA     BYTE      MAC_MODE
      000000C8H   SFRSYM    DATA     BIT       TR2
      00000083H   SFRSYM    DATA     BYTE      DPH
      00000082H   SFRSYM    DATA     BYTE      DPL
      00000099H   SFRSYM    DATA     BYTE      SBUF0
      0000009CH   SFRSYM    DATA     BYTE      SBUF1
      00000098H   SFRSYM    DATA     BYTE      SCON0
      0000009BH   SFRSYM    DATA     BYTE      SCON1
      000000D8H   SFRSYM    DATA     BYTE      ADCON
      00000090H.3 SFRSYM    DATA     BIT       Water_Valve
      000000C8H   SFRSYM    DATA     BYTE      T2CON
      00000090H.1 SFRSYM    DATA     BIT       Low_Speed_Valve
      000000E6H   SFRSYM    DATA     BYTE      DIV_MODE
      000000F8H.5 SFRSYM    DATA     BIT       APP_RW
LX51 LINKER/LOCATER V4.58                                                             08/27/2019  16:41:25  PAGE 98


      000000CBH   SFRSYM    DATA     BYTE      TRL2H
      0000009FH   SFRSYM    DATA     BYTE      SBUF2_RX
      000000ADH   SFRSYM    DATA     BYTE      SBUF3_RX
      0000008EH   SFRSYM    DATA     BYTE      CKCON
      0000009EH   SFRSYM    DATA     BYTE      SBUF2_TX
      000000ACH   SFRSYM    DATA     BYTE      SBUF3_TX
      000000CAH   SFRSYM    DATA     BYTE      TRL2L
      000000FEH   SFRSYM    DATA     BYTE      EXADR
      000000D0H.5 SFRSYM    DATA     BIT       F0
      000000D0H.1 SFRSYM    DATA     BIT       F1
      000000D0H   SFRSYM    DATA     BYTE      PSW
      000000C0H   SFRSYM    DATA     BYTE      IRCON

      010017ECH   BLOCK     CODE     ---       LVL=0
      010017ECH   LINE      ---      ---       #25
      010017ECH   LINE      ---      ---       #26
      010017ECH   LINE      ---      ---       #27
      010017EFH   LINE      ---      ---       #28
      010017F2H   LINE      ---      ---       #29
      ---         BLOCKEND  ---      ---       LVL=0

      0100176EH   BLOCK     CODE     ---       LVL=0
      0100177BH   LINE      ---      ---       #38
      0100177BH   LINE      ---      ---       #39
      0100177BH   BLOCK     CODE     NEAR LAB  LVL=1
      0100177BH   LINE      ---      ---       #40
      0100177DH   LINE      ---      ---       #41
      0100177DH   LINE      ---      ---       #42
      0100177DH   LINE      ---      ---       #43
      0100177FH   LINE      ---      ---       #44
      0100177FH   LINE      ---      ---       #46
      00000007H   SYMBOL    DATA     BYTE      i
      ---         BLOCKEND  CODE     ---       LVL=1
      ---         BLOCKEND  CODE     ---       LVL=0
      00000006H   SYMBOL    DATA     WORD      i

      010017B2H   BLOCK     CODE     ---       LVL=0
      010017B2H   LINE      ---      ---       #64
      010017B2H   LINE      ---      ---       #65
      010017B2H   LINE      ---      ---       #66
      010017B5H   LINE      ---      ---       #67
      010017BAH   LINE      ---      ---       #68
      010017BCH   LINE      ---      ---       #69
      010017BEH   LINE      ---      ---       #70
      010017C4H   LINE      ---      ---       #71
      010017C9H   LINE      ---      ---       #72
      010017CBH   LINE      ---      ---       #73
      010017D1H   LINE      ---      ---       #74
      010017D6H   LINE      ---      ---       #75
      010017D8H   LINE      ---      ---       #76
      010017DAH   LINE      ---      ---       #77
      010017DCH   LINE      ---      ---       #78
      ---         BLOCKEND  ---      ---       LVL=0

      0100179DH   BLOCK     CODE     ---       LVL=0
      0100179DH   LINE      ---      ---       #86
      0100179DH   LINE      ---      ---       #87
      0100179DH   LINE      ---      ---       #88
      010017A0H   LINE      ---      ---       #89
      010017A2H   LINE      ---      ---       #90
      010017A4H   LINE      ---      ---       #91
      010017A9H   LINE      ---      ---       #92
      010017ABH   LINE      ---      ---       #95
      010017B0H   LINE      ---      ---       #96
      ---         BLOCKEND  ---      ---       LVL=0
LX51 LINKER/LOCATER V4.58                                                             08/27/2019  16:41:25  PAGE 99



      010017DDH   BLOCK     CODE     ---       LVL=0
      010017DDH   LINE      ---      ---       #105
      010017DDH   LINE      ---      ---       #106
      010017DDH   LINE      ---      ---       #107
      010017DFH   LINE      ---      ---       #108
      010017E1H   LINE      ---      ---       #109
      010017E6H   LINE      ---      ---       #110
      010017E8H   LINE      ---      ---       #113
      010017EAH   LINE      ---      ---       #114
      ---         BLOCKEND  ---      ---       LVL=0

      0100171BH   BLOCK     CODE     ---       LVL=0
      01001729H   LINE      ---      ---       #143
      01001729H   LINE      ---      ---       #144
      01001729H   LINE      ---      ---       #145
      0100172CH   LINE      ---      ---       #146
      0100172EH   LINE      ---      ---       #152
      01001731H   LINE      ---      ---       #153
      01001731H   LINE      ---      ---       #154
      01001733H   LINE      ---      ---       #155
      01001736H   LINE      ---      ---       #156
      01001738H   LINE      ---      ---       #157
      0100173BH   LINE      ---      ---       #158
      0100173BH   LINE      ---      ---       #159
      0100173DH   LINE      ---      ---       #160
      01001740H   LINE      ---      ---       #161
      01001742H   LINE      ---      ---       #162
      01001744H   LINE      ---      ---       #163
      ---         BLOCKEND  ---      ---       LVL=0

      01001745H   BLOCK     CODE     ---       LVL=0
      01001745H   LINE      ---      ---       #172
      01001747H   LINE      ---      ---       #173
      00000006H   SYMBOL    DATA     BYTE      SendByte
      01001747H   BLOCK     CODE     NEAR LAB  LVL=1
      01001747H   LINE      ---      ---       #174
      01001749H   LINE      ---      ---       #175
      0100174FH   LINE      ---      ---       #176
      0100174FH   LINE      ---      ---       #177
      01001751H   LINE      ---      ---       #178
      01001753H   LINE      ---      ---       #179
      0100175EH   LINE      ---      ---       #180
      01001763H   LINE      ---      ---       #181
      01001767H   LINE      ---      ---       #182
      01001769H   LINE      ---      ---       #185
      0100176BH   LINE      ---      ---       #186
      0100176DH   LINE      ---      ---       #187
      00000005H   SYMBOL    DATA     BYTE      i
      ---         BLOCKEND  CODE     ---       LVL=1
      ---         BLOCKEND  CODE     ---       LVL=0

      01006571H   BLOCK     CODE     ---       LVL=0
      01006571H   LINE      ---      ---       #196
      01006571H   LINE      ---      ---       #197
      01006571H   BLOCK     CODE     NEAR LAB  LVL=1
      01006571H   LINE      ---      ---       #198
      01006573H   LINE      ---      ---       #199
      01006575H   LINE      ---      ---       #200
      01006578H   LINE      ---      ---       #201
      0100657EH   LINE      ---      ---       #202
      0100657EH   LINE      ---      ---       #203
      01006582H   LINE      ---      ---       #204
      01006584H   LINE      ---      ---       #205
      01006587H   LINE      ---      ---       #208
LX51 LINKER/LOCATER V4.58                                                             08/27/2019  16:41:25  PAGE 100


      0100658AH   LINE      ---      ---       #209
      0100658AH   LINE      ---      ---       #210
      0100658DH   LINE      ---      ---       #211
      0100658DH   LINE      ---      ---       #212
      0100658FH   LINE      ---      ---       #213
      01006591H   LINE      ---      ---       #214
      01006593H   LINE      ---      ---       #215
      00000006H   SYMBOL    DATA     BYTE      i
      00000005H   SYMBOL    DATA     BYTE      ReceiveByte
      ---         BLOCKEND  CODE     ---       LVL=1
      ---         BLOCKEND  CODE     ---       LVL=0
      00000006H   SYMBOL    DATA     BYTE      SlaveAddress
      00000004H   SYMBOL    DATA     BYTE      REG_Address
      00000003H   SYMBOL    DATA     BYTE      REG_data
      00000004H   SYMBOL    DATA     BYTE      SlaveAddress
      00000003H   SYMBOL    DATA     BYTE      REG_Address
      00000006H   SYMBOL    DATA     BYTE      REG_data

      01001780H   BLOCK     CODE     ---       LVL=0
      01001780H   LINE      ---      ---       #278
      01001782H   LINE      ---      ---       #288
      01001784H   LINE      ---      ---       #289
      01001788H   LINE      ---      ---       #290
      0100178AH   LINE      ---      ---       #291
      01001791H   LINE      ---      ---       #292
      01001793H   LINE      ---      ---       #293
      00000004H   SYMBOL    DATA     BYTE      ReadAddr
      00000001H   SYMBOL    DATA     ---       databuf
      ---         BLOCKEND  ---      ---       LVL=0

      010016FDH   BLOCK     CODE     ---       LVL=0
      010016FDH   LINE      ---      ---       #299
      010016FFH   LINE      ---      ---       #308
      01001705H   LINE      ---      ---       #309
      01001707H   LINE      ---      ---       #310
      01001710H   LINE      ---      ---       #311
      01001712H   LINE      ---      ---       #312
      01001714H   LINE      ---      ---       #313
      00000004H   SYMBOL    DATA     BYTE      WriteAddr
      00000001H   SYMBOL    DATA     ---       DataToWrite
      ---         BLOCKEND  ---      ---       LVL=0

      0100169DH   BLOCK     CODE     ---       LVL=0
      0100169DH   LINE      ---      ---       #317
      0100169DH   LINE      ---      ---       #318
      0100169DH   BLOCK     CODE     NEAR LAB  LVL=1
      0100169DH   LINE      ---      ---       #321
      0100169FH   LINE      ---      ---       #322
      010016A5H   LINE      ---      ---       #323
      010016A9H   LINE      ---      ---       #324
      010016B2H   LINE      ---      ---       #325
      010016B8H   LINE      ---      ---       #326
      010016BCH   LINE      ---      ---       #327
      010016C6H   LINE      ---      ---       #328
      010016CCH   LINE      ---      ---       #329
      010016CFH   LINE      ---      ---       #330
      010016D9H   LINE      ---      ---       #331
      010016DFH   LINE      ---      ---       #332
      010016E2H   LINE      ---      ---       #333
      010016ECH   LINE      ---      ---       #334
      010016F2H   LINE      ---      ---       #335
      010016F5H   LINE      ---      ---       #336
      020085D2H   SYMBOL    XDATA    ---       conf_data
      ---         BLOCKEND  CODE     ---       LVL=1
      ---         BLOCKEND  CODE     ---       LVL=0
LX51 LINKER/LOCATER V4.58                                                             08/27/2019  16:41:25  PAGE 101



      01006594H   BLOCK     CODE     ---       LVL=0
      01006594H   LINE      ---      ---       #365
      0100659FH   LINE      ---      ---       #366
      020085D2H   SYMBOL    XDATA    ---       ProxResult
      0100659FH   BLOCK     CODE     NEAR LAB  LVL=1
      0100659FH   LINE      ---      ---       #371
      010065A6H   LINE      ---      ---       #375
      010065B2H   LINE      ---      ---       #376
      010065B2H   LINE      ---      ---       #377
      010065B8H   LINE      ---      ---       #378
      010065BCH   LINE      ---      ---       #379
      010065C7H   LINE      ---      ---       #380
      010065D7H   LINE      ---      ---       #381
      010065EFH   LINE      ---      ---       #382
      010065EFH   LINE      ---      ---       #387
      010065F7H   LINE      ---      ---       #388
      01006606H   LINE      ---      ---       #389
      0100661BH   LINE      ---      ---       #390
      0100661EH   LINE      ---      ---       #391
      0100661EH   LINE      ---      ---       #392
      0100661EH   LINE      ---      ---       #393
      020085D5H   SYMBOL    XDATA    ---       conf_data
      ---         BLOCKEND  CODE     ---       LVL=1
      ---         BLOCKEND  CODE     ---       LVL=0

      ---         MODULE    ---      ---       ORC
      0200849BH   PUBLIC    XDATA    ---       M1
      0200845BH   PUBLIC    XDATA    ---       E1
      02008459H   PUBLIC    XDATA    ---       Pmove1
      02008437H   PUBLIC    XDATA    ---       ReadGb
      020083F7H   PUBLIC    XDATA    ---       S1
      020083B7H   PUBLIC    XDATA    ---       M2
      000000F1H   SFRSYM    DATA     BYTE      ADR_H
      00000080H   SFRSYM    DATA     BYTE      P0
      00000090H   SFRSYM    DATA     BYTE      P1
      000000A0H   SFRSYM    DATA     BYTE      P2
      000000B0H   SFRSYM    DATA     BYTE      P3
      000000F3H   SFRSYM    DATA     BYTE      ADR_L
      000000D0H.6 SFRSYM    DATA     BIT       AC
      00000094H   SFRSYM    DATA     BYTE      PAGESEL
      000000F2H   SFRSYM    DATA     BYTE      ADR_M
      000000A8H.7 SFRSYM    DATA     BIT       EA
      000000F8H   SFRSYM    DATA     BYTE      RAMMODE
      000000B7H   SFRSYM    DATA     BYTE      P0MDOUT
      000000BCH   SFRSYM    DATA     BYTE      P1MDOUT
      000000A8H   SFRSYM    DATA     BYTE      IEN0
      000000BDH   SFRSYM    DATA     BYTE      P2MDOUT
      000000B8H   SFRSYM    DATA     BYTE      IEN1
      000000BEH   SFRSYM    DATA     BYTE      P3MDOUT
      0000009AH   SFRSYM    DATA     BYTE      IEN2
      000000F8H.4 SFRSYM    DATA     BIT       APP_ACK
      000000A0H.1 SFRSYM    DATA     BIT       P2_1
      000000F4H   SFRSYM    DATA     BYTE      ADR_INC
      000000B8H.1 SFRSYM    DATA     BIT       ECAN
      00000090H.4 SFRSYM    DATA     BIT       Medium_Speed_Valve
      000000D0H.7 SFRSYM    DATA     BIT       CY
      000000B8H.3 SFRSYM    DATA     BIT       ES2R
      000000B8H.5 SFRSYM    DATA     BIT       ES3R
      000000B8H.2 SFRSYM    DATA     BIT       ES2T
      000000B8H.4 SFRSYM    DATA     BIT       ES3T
      00000081H   SFRSYM    DATA     BYTE      SP
      000000D0H.2 SFRSYM    DATA     BIT       OV
      00000095H   SFRSYM    DATA     BYTE      D_PAGESEL
      000000F8H.7 SFRSYM    DATA     BIT       APP_REQ
LX51 LINKER/LOCATER V4.58                                                             08/27/2019  16:41:25  PAGE 102


      000000BFH   SFRSYM    DATA     BYTE      IRCON2
      000000BAH   SFRSYM    DATA     BYTE      SREL0H
      000000BBH   SFRSYM    DATA     BYTE      SREL1H
      00000087H   SFRSYM    DATA     BYTE      PCON
      000000F9H   SFRSYM    DATA     BYTE      PORTDRV
      000000AAH   SFRSYM    DATA     BYTE      SREL0L
      0000009DH   SFRSYM    DATA     BYTE      SREL1L
      00000089H   SFRSYM    DATA     BYTE      TMOD
      00000088H   SFRSYM    DATA     BYTE      TCON
      00000090H.2 SFRSYM    DATA     BIT       High_Speed_Valve
      000000FFH   SFRSYM    DATA     BYTE      EXDATA
      00000097H   SFRSYM    DATA     BYTE      SCON2R
      000000ABH   SFRSYM    DATA     BYTE      SCON3R
      000000D9H   SFRSYM    DATA     BYTE      BODE2_DIV_H
      000000AEH   SFRSYM    DATA     BYTE      BODE3_DIV_H
      00000096H   SFRSYM    DATA     BYTE      SCON2T
      000000A7H   SFRSYM    DATA     BYTE      SCON3T
      000000E7H   SFRSYM    DATA     BYTE      BODE2_DIV_L
      00000088H.1 SFRSYM    DATA     BIT       IE0
      000000AFH   SFRSYM    DATA     BYTE      BODE3_DIV_L
      00000088H.3 SFRSYM    DATA     BIT       IE1
      000000C9H   SFRSYM    DATA     BYTE      MUX_SEL
      000000F0H   SFRSYM    DATA     BYTE      B
      000000E0H   SFRSYM    DATA     BYTE      ACC
      0000008FH   SFRSYM    DATA     BYTE      CAN_CR
      000000A8H.4 SFRSYM    DATA     BIT       ES0
      000000A9H   SFRSYM    DATA     BYTE      IP0
      000000A8H.1 SFRSYM    DATA     BIT       ET0
      000000B9H   SFRSYM    DATA     BYTE      IP1
      000000A8H.3 SFRSYM    DATA     BIT       ET1
      00000088H.5 SFRSYM    DATA     BIT       TF0
      000000FDH   SFRSYM    DATA     BYTE      DATA0
      000000A8H.5 SFRSYM    DATA     BIT       ET2
      00000098H   SFRSYM    DATA     BIT       RI0
      00000088H.7 SFRSYM    DATA     BIT       TF1
      000000E8H   SFRSYM    DATA     BYTE      CAN_ET
      000000FCH   SFRSYM    DATA     BYTE      DATA1
      000000C0H.6 SFRSYM    DATA     BIT       TF2
      0000008CH   SFRSYM    DATA     BYTE      TH0
      000000FBH   SFRSYM    DATA     BYTE      DATA2
      000000A8H   SFRSYM    DATA     BIT       EX0
      00000098H.1 SFRSYM    DATA     BIT       TI0
      0000008DH   SFRSYM    DATA     BYTE      TH1
      00000088H   SFRSYM    DATA     BIT       IT0
      00000091H   SFRSYM    DATA     BYTE      CAN_IR
      000000FAH   SFRSYM    DATA     BYTE      DATA3
      000000CDH   SFRSYM    DATA     BYTE      TH2
      000000A8H.2 SFRSYM    DATA     BIT       EX1
      00000088H.2 SFRSYM    DATA     BIT       IT1
      000000D0H   SFRSYM    DATA     BIT       P
      000000A0H.2 SFRSYM    DATA     BIT       KEY1_Vin_F
      0000008AH   SFRSYM    DATA     BYTE      TL0
      0000008BH   SFRSYM    DATA     BYTE      TL1
      000000CCH   SFRSYM    DATA     BYTE      TL2
      000000F8H.6 SFRSYM    DATA     BIT       APP_EN
      000000D0H.3 SFRSYM    DATA     BIT       RS0
      000000D0H.4 SFRSYM    DATA     BIT       RS1
      00000088H.4 SFRSYM    DATA     BIT       TR0
      00000093H   SFRSYM    DATA     BYTE      DPC
      00000088H.6 SFRSYM    DATA     BIT       TR1
      000000E5H   SFRSYM    DATA     BYTE      MAC_MODE
      000000C8H   SFRSYM    DATA     BIT       TR2
      00000083H   SFRSYM    DATA     BYTE      DPH
      00000082H   SFRSYM    DATA     BYTE      DPL
      00000099H   SFRSYM    DATA     BYTE      SBUF0
LX51 LINKER/LOCATER V4.58                                                             08/27/2019  16:41:25  PAGE 103


      0000009CH   SFRSYM    DATA     BYTE      SBUF1
      00000098H   SFRSYM    DATA     BYTE      SCON0
      0000009BH   SFRSYM    DATA     BYTE      SCON1
      000000D8H   SFRSYM    DATA     BYTE      ADCON
      00000090H.3 SFRSYM    DATA     BIT       Water_Valve
      000000C8H   SFRSYM    DATA     BYTE      T2CON
      00000090H.1 SFRSYM    DATA     BIT       Low_Speed_Valve
      000000E6H   SFRSYM    DATA     BYTE      DIV_MODE
      000000F8H.5 SFRSYM    DATA     BIT       APP_RW
      000000CBH   SFRSYM    DATA     BYTE      TRL2H
      0000009FH   SFRSYM    DATA     BYTE      SBUF2_RX
      000000ADH   SFRSYM    DATA     BYTE      SBUF3_RX
      0000008EH   SFRSYM    DATA     BYTE      CKCON
      0000009EH   SFRSYM    DATA     BYTE      SBUF2_TX
      000000ACH   SFRSYM    DATA     BYTE      SBUF3_TX
      000000CAH   SFRSYM    DATA     BYTE      TRL2L
      000000FEH   SFRSYM    DATA     BYTE      EXADR
      000000D0H.5 SFRSYM    DATA     BIT       F0
      000000D0H.1 SFRSYM    DATA     BIT       F1
      000000D0H   SFRSYM    DATA     BYTE      PSW
      000000C0H   SFRSYM    DATA     BYTE      IRCON
      00000007H   SYMBOL    DATA     CHAR      xx
      00000005H   SYMBOL    DATA     CHAR      yy
      00000007H   SYMBOL    DATA     CHAR      nrnd

      ---         MODULE    ---      ---       ?C_STARTUP
      01000000H   PUBLIC    CODE     ---       ?C_STARTUP
      000000E0H   SYMBOL    DATA     ---       ACC
      000000F0H   SYMBOL    DATA     ---       B
      0000008EH   SYMBOL    DATA     ---       CKCON
      00000094H   SYMBOL    DATA     ---       DAGESEL
      00000093H   SYMBOL    DATA     ---       DPC
      00000083H   SYMBOL    DATA     ---       DPH
      00000082H   SYMBOL    DATA     ---       DPL
      00000095H   SYMBOL    DATA     ---       D_PAGESEL
      00000000H   SYMBOL    NUMBER   ---       IBPSTACK
      00000100H   SYMBOL    NUMBER   ---       IBPSTACKTOP
      00000080H   SYMBOL    NUMBER   ---       IDATALEN
      01001114H   SYMBOL    CODE     ---       IDATALOOP
      000000C9H   SYMBOL    DATA     ---       MUX_SEL
      00000000H   SYMBOL    NUMBER   ---       PBPSTACK
      00000100H   SYMBOL    NUMBER   ---       PBPSTACKTOP
      00000000H   SYMBOL    NUMBER   ---       PDATALEN
      00000000H   SYMBOL    NUMBER   ---       PDATASTART
      00000000H   SYMBOL    NUMBER   ---       PPAGE
      00000000H   SYMBOL    NUMBER   ---       PPAGEENABLE
      000000A0H   SYMBOL    DATA     ---       PPAGE_SFR
      000000F8H   SYMBOL    DATA     ---       RAMMODE
      00000081H   SYMBOL    DATA     ---       SP
      010010FCH   SYMBOL    CODE     ---       STARTUP1
      000000C8H   SYMBOL    DATA     ---       T2CON
      00000000H   SYMBOL    NUMBER   ---       XBPSTACK
      00000000H   SYMBOL    NUMBER   ---       XBPSTACKTOP
      00000000H   SYMBOL    NUMBER   ---       XDATALEN
      00000000H   SYMBOL    NUMBER   ---       XDATASTART
      01000000H   LINE      CODE     ---       #133
      010010FCH   LINE      CODE     ---       #143
      010010FFH   LINE      CODE     ---       #144
      01001102H   LINE      CODE     ---       #145
      01001105H   LINE      CODE     ---       #146
      01001108H   LINE      CODE     ---       #147
      0100110BH   LINE      CODE     ---       #148
      0100110EH   LINE      CODE     ---       #149
      01001111H   LINE      CODE     ---       #152
      01001113H   LINE      CODE     ---       #153
LX51 LINKER/LOCATER V4.58                                                             08/27/2019  16:41:25  PAGE 104


      01001114H   LINE      CODE     ---       #154
      01001115H   LINE      CODE     ---       #155
      01001117H   LINE      CODE     ---       #204
      0100111AH   LINE      CODE     ---       #215

      ---         MODULE    ---      ---       ?C?FPADD
      01000107H   PUBLIC    CODE     ---       ?C?FPADD
      01000103H   PUBLIC    CODE     ---       ?C?FPSUB

      ---         MODULE    ---      ---       ?C?FPMUL
      010001F8H   PUBLIC    CODE     ---       ?C?FPMUL

      ---         MODULE    ---      ---       ?C?FPDIV
      01000301H   PUBLIC    CODE     ---       ?C?FPDIV

      ---         MODULE    ---      ---       ?C?FCAST
      010003A8H   PUBLIC    CODE     ---       ?C?FCASTC
      010003A3H   PUBLIC    CODE     ---       ?C?FCASTI
      0100039EH   PUBLIC    CODE     ---       ?C?FCASTL

      ---         MODULE    ---      ---       ?C?CASTF
      010003DCH   PUBLIC    CODE     ---       ?C?CASTF

      ---         MODULE    ---      ---       SQRT

      ---         MODULE    ---      ---       ?C?FPGETOPN
      01000413H   PUBLIC    CODE     ---       ?C?FPGETOPN2
      01000448H   PUBLIC    CODE     ---       ?C?FPNANRESULT
      01000452H   PUBLIC    CODE     ---       ?C?FPOVERFLOW
      0100042AH   PUBLIC    CODE     ---       ?C?FPRESULT
      0100043EH   PUBLIC    CODE     ---       ?C?FPRESULT2
      0100044FH   PUBLIC    CODE     ---       ?C?FPUNDERFLOW

      ---         MODULE    ---      ---       ?C_INIT
      01001158H   PUBLIC    CODE     ---       ?C_START

      ---         MODULE    ---      ---       ?C?COPY
      0100052DH   PUBLIC    CODE     ---       ?C?COPY

      ---         MODULE    ---      ---       ?C?CLDPTR
      01000553H   PUBLIC    CODE     ---       ?C?CLDPTR

      ---         MODULE    ---      ---       ?C?CLDOPTR
      0100056CH   PUBLIC    CODE     ---       ?C?CLDOPTR

      ---         MODULE    ---      ---       ?C?CSTPTR
      01000599H   PUBLIC    CODE     ---       ?C?CSTPTR

      ---         MODULE    ---      ---       ?C?CSTOPTR
      010005ABH   PUBLIC    CODE     ---       ?C?CSTOPTR

      ---         MODULE    ---      ---       ?C?IMUL
      010005CDH   PUBLIC    CODE     ---       ?C?IMUL

      ---         MODULE    ---      ---       ?C?UIDIV
      010005DFH   PUBLIC    CODE     ---       ?C?UIDIV

      ---         MODULE    ---      ---       ?C?SIDIV
      01000634H   PUBLIC    CODE     ---       ?C?SIDIV

      ---         MODULE    ---      ---       ?C?IILDX
      0100066AH   PUBLIC    CODE     ---       ?C?IILDX

      ---         MODULE    ---      ---       ?C?ILDIX
      01000680H   PUBLIC    CODE     ---       ?C?ILDIX
LX51 LINKER/LOCATER V4.58                                                             08/27/2019  16:41:25  PAGE 105



      ---         MODULE    ---      ---       ?C?ILDOPTR
      01000696H   PUBLIC    CODE     ---       ?C?ILDOPTR

      ---         MODULE    ---      ---       ?C?ISTPTR
      010006CEH   PUBLIC    CODE     ---       ?C?ISTPTR

      ---         MODULE    ---      ---       ?C?LMUL
      010006EDH   PUBLIC    CODE     ---       ?C?LMUL

      ---         MODULE    ---      ---       ?C?ULDIV
      01000778H   PUBLIC    CODE     ---       ?C?ULDIV

      ---         MODULE    ---      ---       ?C?LNEG
      0100080AH   PUBLIC    CODE     ---       ?C?LNEG

      ---         MODULE    ---      ---       ?C?SLCMP
      01000818H   PUBLIC    CODE     ---       ?C?SLCMP

      ---         MODULE    ---      ---       ?C?ULCMP
      0100082EH   PUBLIC    CODE     ---       ?C?ULCMP

      ---         MODULE    ---      ---       ?C?ULSHR
      0100083FH   PUBLIC    CODE     ---       ?C?ULSHR

      ---         MODULE    ---      ---       ?C?LLDXDATA
      01000852H   PUBLIC    CODE     ---       ?C?LLDXDATA

      ---         MODULE    ---      ---       ?C?LSTXDATA
      0100085EH   PUBLIC    CODE     ---       ?C?LSTXDATA

      ---         MODULE    ---      ---       ?C?LSTKXDATA
      0100086AH   PUBLIC    CODE     ---       ?C?LSTKXDATA

      ---         MODULE    ---      ---       ?C?OFFXADD
      0100089BH   PUBLIC    CODE     ---       ?C?OFFXADD

      ---         MODULE    ---      ---       ?C?ICASE
      010008A7H   PUBLIC    CODE     ---       ?C?ICASE

      ---         MODULE    ---      ---       ?C?LIMUL
      010008D4H   PUBLIC    CODE     ---       ?C?LIMUL

      ---         MODULE    ---      ---       ABS
      0100119DH   PUBLIC    CODE     ---       _ABS

      ---         MODULE    ---      ---       ?C?STRCMP
      01000A7FH   PUBLIC    CODE     ---       ?C?STRCMP

      ---         MODULE    ---      ---       ?C?MEMSET
      01000A9CH   PUBLIC    CODE     ---       ?C?MEMSET

Program Size: data=58.0 xdata=2081 const=1201 code=24747
LX51 RUN COMPLETE.  0 WARNING(S),  0 ERROR(S)
